Sections:
00: "org0001:8000000" (8000000-80007BC)


Source: "C:/Users/Artem/Documents/universitet/4.semester/P4_project/Assambly_Tutorials_VASM/Joypad_Controls/Joypad_Controls.asm"
                            	     1: .equ JoyData,RamArea+4	;4 bytes
                            	     2: .equ PenData,RamArea+8	;8 Bytes X,Y
                            	     3: 
                            	     4: .org  0x08000000     ; GBA ROM Address starts at 0x08000000       
                            	     5: .equ ProgBase,0;0x08000000
                            	     6: 
                            	     7: .equ ramarea, 0x02000000
                            	     8: .equ userram, 0x02000000
                            	     9: 
                            	    10: .equ CursorX,ramarea+32
                            	    11: .equ MonitorWidth,6
                            	    12: 
                            	    13: ;000h    4     ROM Entry Point  (32bit ARM branch opcode, eg. "B rom_start") 
00:08000000 380000EA        	    14: b	GbaStart
                            	    15: 
                            	    16: .equ CursorY,ramarea+33
                            	    17: 
                            	    18: ;004h    156   Nintendo Logo    (compressed bitmap, required!)
00:08000004 C8              	    19: .byte 0xC8,0x60,0x4F,0xE2,0x01,0x70,0x8F,0xE2,0x17,0xFF,0x2F,0xE1,0x12,0x4F,0x11,0x48     ; C
00:08000005 60
00:08000006 4F
00:08000007 E2
00:08000008 01
00:08000009 70
00:0800000A 8F
00:0800000B E2
00:0800000C 17
00:0800000D FF
00:0800000E 2F
00:0800000F E1
00:08000010 12
00:08000011 4F
00:08000012 11
00:08000013 48
00:08000014 12              	    20: .byte 0x12,0x4C,0x20,0x60,0x64,0x60,0x7C,0x62,0x30,0x1C,0x39,0x1C,0x10,0x4A,0x00,0xF0     ; D
00:08000015 4C
00:08000016 20
00:08000017 60
00:08000018 64
00:08000019 60
00:0800001A 7C
00:0800001B 62
00:0800001C 30
00:0800001D 1C
00:0800001E 39
00:0800001F 1C
00:08000020 10
00:08000021 4A
00:08000022 00
00:08000023 F0
00:08000024 14              	    21: .byte 0x14,0xF8,0x30,0x6A,0x80,0x19,0xB1,0x6A,0xF2,0x6A,0x00,0xF0,0x0B,0xF8,0x30,0x6B     ; E
00:08000025 F8
00:08000026 30
00:08000027 6A
00:08000028 80
00:08000029 19
00:0800002A B1
00:0800002B 6A
00:0800002C F2
00:0800002D 6A
00:0800002E 00
00:0800002F F0
00:08000030 0B
00:08000031 F8
00:08000032 30
00:08000033 6B
00:08000034 80              	    22: .byte 0x80,0x19,0xB1,0x6B,0xF2,0x6B,0x00,0xF0,0x08,0xF8,0x70,0x6A,0x77,0x6B,0x07,0x4C     ; F
00:08000035 19
00:08000036 B1
00:08000037 6B
00:08000038 F2
00:08000039 6B
00:0800003A 00
00:0800003B F0
00:0800003C 08
00:0800003D F8
00:0800003E 70
00:0800003F 6A
00:08000040 77
00:08000041 6B
00:08000042 07
00:08000043 4C
00:08000044 60              	    23: .byte 0x60,0x60,0x38,0x47,0x07,0x4B,0xD2,0x18,0x9A,0x43,0x07,0x4B,0x92,0x08,0xD2,0x18     ; 10
00:08000045 60
00:08000046 38
00:08000047 47
00:08000048 07
00:08000049 4B
00:0800004A D2
00:0800004B 18
00:0800004C 9A
00:0800004D 43
00:0800004E 07
00:0800004F 4B
00:08000050 92
00:08000051 08
00:08000052 D2
00:08000053 18
00:08000054 0C              	    24: .byte 0x0C,0xDF,0xF7,0x46,0x04,0xF0,0x1F,0xE5,0x00,0xFE,0x7F,0x02,0xF0,0xFF,0x7F,0x02     ; 11
00:08000055 DF
00:08000056 F7
00:08000057 46
00:08000058 04
00:08000059 F0
00:0800005A 1F
00:0800005B E5
00:0800005C 00
00:0800005D FE
00:0800005E 7F
00:0800005F 02
00:08000060 F0
00:08000061 FF
00:08000062 7F
00:08000063 02
00:08000064 F0              	    25: .byte 0xF0,0x01,0x00,0x00,0xFF,0x01,0x00,0x00,0x00,0x00,0x00,0x04,0x00,0x00,0x00,0x00     ; 12
00:08000065 01
00:08000066 00
00:08000067 00
00:08000068 FF
00:08000069 01
00:0800006A 00
00:0800006B 00
00:0800006C 00
00:0800006D 00
00:0800006E 00
00:0800006F 04
00:08000070 00
00:08000071 00
00:08000072 00
00:08000073 00
00:08000074 00              	    26: .byte 0x00,0x00,0x00,0x00,0x00,0x00,0x00,0x00,0x00,0x00,0x00,0x00,0x00,0x00,0x00,0x00     ; 13
00:08000075 00
00:08000076 00
00:08000077 00
00:08000078 00
00:08000079 00
00:0800007A 00
00:0800007B 00
00:0800007C 00
00:0800007D 00
00:0800007E 00
00:0800007F 00
00:08000080 00
00:08000081 00
00:08000082 00
00:08000083 00
00:08000084 00              	    27: .byte 0x00,0x00,0x00,0x00,0x00,0x00,0x00,0x00,0x00,0x00,0x00,0x00,0x00,0x00,0x00,0x00     ; 14
00:08000085 00
00:08000086 00
00:08000087 00
00:08000088 00
00:08000089 00
00:0800008A 00
00:0800008B 00
00:0800008C 00
00:0800008D 00
00:0800008E 00
00:0800008F 00
00:08000090 00
00:08000091 00
00:08000092 00
00:08000093 00
00:08000094 00              	    28: .byte 0x00,0x00,0x00,0x00,0x00,0x00,0x00,0x00,0x00,0x00,0x00,0x00,0x1A,0x9E,0x7B,0xEB     ; 15
00:08000095 00
00:08000096 00
00:08000097 00
00:08000098 00
00:08000099 00
00:0800009A 00
00:0800009B 00
00:0800009C 00
00:0800009D 00
00:0800009E 00
00:0800009F 00
00:080000A0 1A
00:080000A1 9E
00:080000A2 7B
00:080000A3 EB
                            	    29: 
                            	    30: ;0A0h    12    Game Title       (uppercase ascii, max 12 characters)	
00:080000A4 4C4541524E41534D	    31: .ascii "LEARNASM.NET"
00:080000AC 2E4E4554
                            	    32: ;0ACh    4     Game Code        (uppercase ascii, 4 characters)
00:080000B0 30303030        	    33: .ascii "0000"			;Code
                            	    34: ;0B0h    2     Maker Code       (uppercase ascii, 2 characters)
00:080000B4 4742            	    35: .byte "GB"				;Maker
                            	    36: ;0B2h    1     Fixed value      (must be 96h, required!)
00:080000B6 96              	    37: .byte 0x96
                            	    38: ;0B3h    1     Main unit code   (00h for current GBA models)
00:080000B7 00              	    39: .byte 0x00
                            	    40: ;0B4h    1     Device type      (usually 00h) (bit7=DACS/debug related)
00:080000B8 00              	    41: .byte 0x00
                            	    42: ;0B5h    7     Reserved Area    (should be zero filled)
00:080000B9 00              	    43: .byte 0x00,0x00,0x00,0x00,0x00,0x00,0x00
00:080000BA 00
00:080000BB 00
00:080000BC 00
00:080000BD 00
00:080000BE 00
00:080000BF 00
                            	    44: ;0BCh    1     Software version (usually 00h)
00:080000C0 00              	    45: .byte 0x00
                            	    46: ;0BDh    1     Complement check (header checksum, required!)
00:080000C1 00              	    47: .byte 0x00
                            	    48: ;0BEh    2     Reserved Area    (should be zero filled)
00:080000C2 00              	    49: .byte 0x00,0x00
00:080000C3 00
                            	    50: ;0C0h    4     RAM Entry Point  (32bit ARM branch opcode, eg. "B ram_start")
00:080000C4 00              	    51: .byte 0x00,0x00,0x00,0x00
00:080000C5 00
00:080000C6 00
00:080000C7 00
                            	    52: ;0C4h    1     Boot mode        (init as 00h - BIOS overwrites this value!)
00:080000C8 00              	    53: .byte 0x00
                            	    54: ;0C5h    1     Slave ID Number  (init as 00h - BIOS overwrites this value!)
00:080000C9 00              	    55: .byte 0x00
                            	    56: ;0C6h    26    Not used         (seems to be unused)
00:080000CA 00              	    57: .byte 0,0,0,0,0,0,0,0,0,0,0,0,0,0,0,0,0,0,0,0,0,0,0,0,0,0
00:080000CB 00
00:080000CC 00
00:080000CD 00
00:080000CE 00
00:080000CF 00
00:080000D0 00
00:080000D1 00
00:080000D2 00
00:080000D3 00
00:080000D4 00
00:080000D5 00
00:080000D6 00
00:080000D7 00
00:080000D8 00
00:080000D9 00
00:080000DA 00
00:080000DB 00
00:080000DC 00
00:080000DD 00
00:080000DE 00
00:080000DF 00
00:080000E0 00
00:080000E1 00
00:080000E2 00
00:080000E3 00
                            	    58: ;0E0h    4     JOYBUS Entry Pt. (32bit ARM branch opcode, eg. "B joy_start")
00:080000E4 00              	    59: .byte 0x00,0x00,0x00,0x00
00:080000E5 00
00:080000E6 00
00:080000E7 00
                            	    60: 
                            	    61: GbaStart:
00:080000E8 CA0000EB        	    62: 	bl ScreenInit
                            	    63: Again:	
00:080000EC E10000EB        	    64: 	bl cls
                            	    65: 
                            	    66: 	; Read Joypad State
00:080000F0 133EA0E3013383E3	    67: 	mov r3,#0x4000130	; GBA Keys (KEYINPUT register) at 0x04000130
00:080000F8 B00053E1        	    68: 	ldrh r0,[r3]		; ------LRDULRSsBA (inverted, 0=pressed)
00:080000FC 0D0000EB        	    69: 	bl MonitorR0		
                            	    70: 
00:08000100 0510A0E3        	    71: 	mov r1,#5
                            	    72: Delay:
00:08000104 0103A0E3040080E3	    73: 	mov r0,#0x4000004	; DISPSTAT (Display Status register) at 0x04000004
00:0800010C B00050E1        	    74: 	ldrh r0,[r0]
00:08000110 010010E2        	    75: 	ands r0,r0,#1		; Bit 0 is VBlank status
00:08000114 FAFFFF0A        	    76: 	beq Delay			; Wait for VBlank End (wait until bit 0 is 1)
                            	    77: Delay2:
00:08000118 0103A0E3040080E3	    78: 	mov r0,#0x4000004	; DISPSTAT
00:08000120 B00050E1        	    79: 	ldrh r0,[r0]
00:08000124 010010E2        	    80: 	ands r0,r0,#1
00:08000128 FAFFFF1A        	    81: 	bne Delay2			; Wait for VBlank Start (wait until bit 0 is 0)
00:0800012C 011051E2        	    82: 	subs r1,r1,#1
00:08000130 F3FFFF1A        	    83: 	bne Delay
                            	    84: 	
00:08000134 ECFFFFEA        	    85: 	b Again
                            	    86: 
                            	    87: ;;;;;;;;;;;;;;;;;;;;;;;;;;;;;;;;;;;;;;;;;;;;;;;;;;;;;;;;;;;;;;;;;;;;;;;;
                            	    88: ; Monitor & Output Registers
                            	    89: ;;;;;;;;;;;;;;;;;;;;;;;;;;;;;;;;;;;;;;;;;;;;;;;;;;;;;;;;;;;;;;;;;;;;;;;;
                            	    90: 
                            	    91: MonitorR0:	
00:08000138 00402DE9        	    92: 	STMFD sp!,{lr}			;Push Regs
00:0800013C 570000EB        	    93: 		bl ShowHex32	
00:08000140 2000A0E3        	    94: 		mov r0,#32 					;Ascii Space
00:08000144 7F0000EB        	    95: 		bl PrintChar
00:08000148 0080BDE8        	    96: 	LDMFD sp!,{pc}			;Pop Regs and return	
                            	    97: 
                            	    98: ;;;;;;;;;;;;;;;;;;;;;;;;;;;;;;;;;;;;;;;;;;;;;;;;;;;;;;;;;;;;;;;;;;;;;;;;
                            	    99: ; V1_Monitor.asm (Inlined & GBA-Refactored)
                            	   100: ;;;;;;;;;;;;;;;;;;;;;;;;;;;;;;;;;;;;;;;;;;;;;;;;;;;;;;;;;;;;;;;;;;;;;;;;
                            	   101: 
                            	   102: MemDump:				
00:0800014C FF5F2DE9        	   103: 	STMFD sp!,{r0-r12, lr}
00:08000150 0040A0E1        	   104: 		mov r4,r0
                            	   105: 		
00:08000154 0400A0E1        	   106: 		mov r0,r4
00:08000158 500000EB        	   107: 		bl ShowHex32
00:0800015C 3A00A0E3        	   108: 		mov r0,#58 ; :
00:08000160 780000EB        	   109: 		bl PrintChar
00:08000164 6C0000EB        	   110: 		bl NewLine
                            	   111: 
                            	   112: MemDumpNextLine:
00:08000168 0030A0E3        	   113: 		mov r3,#0
                            	   114: MemDumpAgain:			
00:0800016C 0300D4E7        	   115: 		ldrb r0,[r4,r3]
00:08000170 5C0000EB        	   116: 		bl ShowHex
                            	   117: 		
00:08000174 2000A0E3        	   118: 		mov r0,#32 ; space
00:08000178 720000EB        	   119: 		bl PrintChar
                            	   120: 		
00:0800017C 013083E2        	   121: 		add r3,r3,#1
00:08000180 060053E3        	   122: 		cmp r3,#MonitorWidth
00:08000184 F8FFFF1A        	   123: 		bne MemDumpAgain
                            	   124: 		
00:08000188 0030A0E3        	   125: 		mov r3,#0
                            	   126: MemDumpAgainB:
00:0800018C 0000A0E3        	   127: 		mov r0,#0
00:08000190 0300D4E7        	   128: 		ldrb r0,[r4,r3]
00:08000194 070000EB        	   129: 		bl PrintCharSafe
00:08000198 013083E2        	   130: 		add r3,r3,#1
00:0800019C 060053E3        	   131: 		cmp r3,#MonitorWidth
00:080001A0 F9FFFF1A        	   132: 		bne MemDumpAgainB
00:080001A4 034084E0        	   133: 		add r4,r4,r3
00:080001A8 5B0000EB        	   134: 		bl NewLine
                            	   135: 		
00:080001AC 011051E2        	   136: 		subs r1,r1,#1
00:080001B0 ECFFFF1A        	   137: 		bne MemDumpNextLine
                            	   138: 		
00:080001B4 FF9FBDE8        	   139: 	LDMFD sp!,{r0-r12, pc}		
                            	   140: 
                            	   141: PrintCharSafe:
00:080001B8 FF5F2DE9        	   142: 	STMFD sp!,{r0-r12, lr}
00:080001BC 200050E3        	   143: 		cmp r0,#32
00:080001C0 2E00A0B3        	   144: 		movlt r0,#46 ;'.'
00:080001C4 800050E3        	   145: 		cmp r0,#128
00:080001C8 2E00A0C3        	   146: 		movgt r0,#46 ;'.'
                            	   147: 		
00:080001CC 5D0000EB        	   148: 		bl printchar
00:080001D0 FF9FBDE8        	   149: 	LDMFD sp!,{r0-r12, pc}		
                            	   150: 
                            	   151: Monitor:
00:080001D4 FFFF2DE9        	   152: 	STMFD sp!,{r0-r15}
00:080001D8 0D50A0E1        	   153: 	mov r5,sp
                            	   154: 	
00:080001DC 0030A0E3        	   155: 	mov r3,#0 ; 0
00:080001E0 0040A0E3        	   156: 	mov r4,#0
                            	   157: NextReg:
00:080001E4 1D0000EB        	   158: 	bl ShowReg				;1st column
                            	   159: 	
00:080001E8 2000A0E3        	   160: 	mov r0,#32
00:080001EC 550000EB        	   161: 	bl PrintChar
                            	   162: 
00:080001F0 204084E2        	   163: 	add r4,r4,#8*4		;2nd column
00:080001F4 083083E2        	   164: 	add r3,r3,#8
00:080001F8 180000EB        	   165: 	bl ShowReg
                            	   166: 	
00:080001FC 204044E2        	   167: 	sub r4,r4,#8*4
00:08000200 083043E2        	   168: 	sub r3,r3,#8
                            	   169: 	
00:08000204 440000EB        	   170: 	bl NewLine
00:08000208 044084E2        	   171: 	add r4,r4,#4
00:0800020C 013083E2        	   172: 	add r3,r3,#1
00:08000210 080053E3        	   173: 	cmp r3,#8
00:08000214 F2FFFF1A        	   174: 	bne NextReg
                            	   175: 
00:08000218 FF7FBDE8        	   176: 	LDMFD sp!,{r0-r14}
00:0800021C 04D08DE2        	   177: 	add sp,sp,#4
00:08000220 0EF0A0E1        	   178: 	mov pc,lr
                            	   179: 	
                            	   180: ShowRegLR:		
00:08000224 4C00A0E3        	   181: 		mov r0,#76 ; L
00:08000228 460000EB        	   182: 		bl PrintChar
                            	   183: 		
00:0800022C 5200A0E3        	   184: 		mov r0,#82 ; R
00:08000230 440000EB        	   185: 		bl PrintChar
00:08000234 140000EA        	   186: 	b ShowRegB
                            	   187: 
                            	   188: ShowRegSP:		
00:08000238 5300A0E3        	   189: 		mov r0,#83 ; S
00:0800023C 410000EB        	   190: 		bl PrintChar
                            	   191: 		
00:08000240 5000A0E3        	   192: 		mov r0,#80 ; P
00:08000244 3F0000EB        	   193: 		bl PrintChar
00:08000248 0F0000EA        	   194: 	b ShowRegB
                            	   195: 
                            	   196: ShowRegPC:		
00:0800024C 5000A0E3        	   197: 		mov r0,#80 ; P
00:08000250 3C0000EB        	   198: 		bl PrintChar
                            	   199: 		
00:08000254 4300A0E3        	   200: 		mov r0,#67 ; C
00:08000258 3A0000EB        	   201: 		bl PrintChar	
00:0800025C 0A0000EA        	   202: 	b ShowRegB
                            	   203: 
                            	   204: ShowReg:					;ShowReg R3
00:08000260 FF5F2DE9        	   205: 	STMFD sp!,{r0-r12, lr}
00:08000264 0F0053E3        	   206: 		cmp r3,#15
00:08000268 F7FFFF0A        	   207: 		beq ShowRegPC
                            	   208: 		
00:0800026C 0E0053E3        	   209: 		cmp r3,#14
00:08000270 EBFFFF0A        	   210: 		beq ShowRegLR
00:08000274 0D0053E3        	   211: 		cmp r3,#13
00:08000278 EEFFFF0A        	   212: 		beq ShowRegSP
                            	   213: 		
00:0800027C 5200A0E3        	   214: 		mov r0,#82 ; R
00:08000280 300000EB        	   215: 		bl PrintChar
                            	   216: 		
00:08000284 0320A0E1        	   217: 		mov r2,r3 ; 0
00:08000288 1C0000EB        	   218: 		bl ShowHexChar
                            	   219: ShowRegB:		
00:0800028C 3A00A0E3        	   220: 		mov r0,#58 ; :
00:08000290 2C0000EB        	   221: 		bl PrintChar
                            	   222: 		
00:08000294 040095E7        	   223: 		ldr r0,[r5,r4]
00:08000298 000000EB        	   224: 		bl ShowHex32
00:0800029C FF9FBDE8        	   225: 	LDMFD sp!,{r0-r12, pc}		
                            	   226: 
                            	   227: ShowHex32:
00:080002A0 FF5F2DE9        	   228: 	STMFD sp!,{r0-r12, lr}
00:080002A4 602EA0E1        	   229: 		mov r2,r0,ror #28
00:080002A8 140000EB        	   230: 		bl ShowHexChar	
00:080002AC 602CA0E1        	   231: 		mov r2,r0,ror #24
00:080002B0 120000EB        	   232: 		bl ShowHexChar	
00:080002B4 602AA0E1        	   233: 		mov r2,r0,ror #20
00:080002B8 100000EB        	   234: 		bl ShowHexChar	
00:080002BC 6028A0E1        	   235: 		mov r2,r0,ror #16
00:080002C0 0E0000EB        	   236: 		bl ShowHexChar	
00:080002C4 6026A0E1        	   237: 		mov r2,r0,ror #12
00:080002C8 0C0000EB        	   238: 		bl ShowHexChar	
00:080002CC 6024A0E1        	   239: 		mov r2,r0,ror #8
00:080002D0 0A0000EB        	   240: 		bl ShowHexChar	
00:080002D4 6022A0E1        	   241: 		mov r2,r0,ror #4
00:080002D8 080000EB        	   242: 		bl ShowHexChar	
00:080002DC 0020A0E1        	   243: 		mov r2,r0
00:080002E0 060000EB        	   244: 		bl ShowHexChar	
00:080002E4 FF9FBDE8        	   245: 	LDMFD sp!,{r0-r12, pc}		
                            	   246: 
                            	   247: ShowHex:
00:080002E8 FF5F2DE9        	   248: 	STMFD sp!,{r0-r12, lr}
00:080002EC 6022A0E1        	   249: 		mov r2,r0,ror #4
00:080002F0 020000EB        	   250: 		bl ShowHexChar	
00:080002F4 0020A0E1        	   251: 		mov r2,r0
00:080002F8 000000EB        	   252: 		bl ShowHexChar	
00:080002FC FF9FBDE8        	   253: 	LDMFD sp!,{r0-r12, pc}		
                            	   254: 
                            	   255: ShowHexChar:
00:08000300 FF5F2DE9        	   256: 	STMFD sp!,{r0-r12, lr}
00:08000304 0F0002E2        	   257: 		and r0,r2,#0x0F ; r3
00:08000308 0A0050E3        	   258: 		cmp r0,#10
00:0800030C 070080A2        	   259: 		addge r0,r0,#7
00:08000310 300080E2        	   260: 		add r0,r0,#48
00:08000314 0B0000EB        	   261: 		bl PrintChar	
00:08000318 FF9FBDE8        	   262: 	LDMFD sp!,{r0-r12, pc}
                            	   263: 
                            	   264: ;;;;;;;;;;;;;;;;;;;;;;;;;;;;;;;;;;;;;;;;;;;;;;;;;;;;;;;;;;;;;;;;;;;;;;;;
                            	   265: ; V1_BitmapMemory.asm (16-bit color, Inlined & Refactored)
                            	   266: ;;;;;;;;;;;;;;;;;;;;;;;;;;;;;;;;;;;;;;;;;;;;;;;;;;;;;;;;;;;;;;;;;;;;;;;;
                            	   267: 
                            	   268: NewLine:
00:0800031C FF5F2DE9        	   269: 	STMFD sp!,{r0-r12, lr}
00:08000320 0234A0E3203083E3	   270: 		mov r3,#CursorX
00:08000328 0000A0E3        	   271: 		mov r0,#0
00:0800032C 0000C3E5        	   272: 		strB r0,[r3]	;X
                            	   273: 		
00:08000330 0234A0E3213083E3	   274: 		mov r3,#CursorY
00:08000338 0000D3E5        	   275: 		ldrB r0,[r3]	;Y
00:0800033C 010080E2        	   276: 		add r0,r0,#1
00:08000340 0000C3E5        	   277: 		strB r0,[r3]	;Y
00:08000344 FF9FBDE8        	   278: 	LDMFD sp!,{r0-r12, pc}
                            	   279: 
                            	   280: PrintChar:
00:08000348 FF5F2DE9        	   281: 	STMFD sp!,{r0-r12, lr}
00:0800034C 0040A0E3        	   282: 		mov r4,#0
00:08000350 0050A0E3        	   283: 		mov r5,#0
                            	   284: 		
00:08000354 0234A0E3203083E3	   285: 		mov r3,#CursorX
00:0800035C 0040D3E5        	   286: 		ldrB r4,[r3]	;X
00:08000360 0234A0E3213083E3	   287: 		mov r3,#CursorY
00:08000368 0050D3E5        	   288: 		ldrB r5,[r3]	;Y
                            	   289: 		
00:0800036C 0634A0E3        	   290: 		mov r3,#0x06000000 ; VRAM
                            	   291: 		
00:08000370 1060A0E3        	   292: 		mov r6,#16			;Xpos 
00:08000374 940602E0        	   293: 		mul r2,r4,r6
00:08000378 023083E0        	   294: 		add r3,r3,r2
                            	   295: 		
00:0800037C 0F4CA0E3        	   296: 		mov r4,#240*8*2		;Ypos 
00:08000380 950402E0        	   297: 		mul r2,r5,r4
00:08000384 023083E0        	   298: 		add r3,r3,r2
                            	   299: 		
00:08000388 4B4F8FE2        	   300: 		adr r4,BitmapFont 	;Font source
00:0800038C 200040E2        	   301: 		sub r0,r0,#32		;First Char is 32 (Space)
00:08000390 804184E0        	   302: 		add r4,r4,r0,asl #3	;8 bytes per char
                            	   303: 		
00:08000394 0810A0E3        	   304: 		mov r1,#8			;8 lines 
                            	   305: DrawLine:
00:08000398 0870A0E3        	   306: 		mov r7,#8 			;8 pixels per line
00:0800039C 0180D4E4        	   307: 		ldrb r8,[r4],#1		;Load Letter
00:080003A0 019CA0E3        	   308: 		mov r9,#0b100000000	;Mask
                            	   309: 
                            	   310: 				;  ABBBBBGGGGGRRRRR	A=Alpha
00:080003A4 FF2CA0E3402082E3	   311: 		mov r2, #0b1111111101000000
                            	   312: 		
                            	   313: DrawPixel:
00:080003AC 090018E1        	   314: 		tst r8,r9			;Is bit 1?
00:080003B0 B0204311        	   315: 		strneh r2,[r3]		;Yes? then fill pixel
00:080003B4 023083E2        	   316: 		add r3,r3,#2
00:080003B8 E990A0E1        	   317: 		mov r9,r9,ror #1	;Bitshift Mask
00:080003BC 017057E2        	   318: 		subs r7,r7,#1
00:080003C0 F9FFFF1A        	   319: 		bne DrawPixel		;Next Hpixel
                            	   320: 		
00:080003C4 1D3E83E2        	   321: 		add r3,r3,#480-16	;Move Down a line
00:080003C8 011051E2        	   322: 		subs r1,r1,#1
00:080003CC F1FFFF1A        	   323: 		bne DrawLine		;Next Vline
                            	   324: 		
00:080003D0 0234A0E3203083E3	   325: 		mov r3,#CursorX
00:080003D8 0000D3E5        	   326: 		ldrB r0,[r3]	
00:080003DC 010080E2        	   327: 		add r0,r0,#1		;Move across screen
00:080003E0 0000C3E5        	   328: 		strB r0,[r3]	
00:080003E4 FF9FBDE8        	   329: 	LDMFD sp!,{r0-r12, pc}
                            	   330: 
                            	   331: GetScreenPos: ;R1,R2 = X,Y
00:080003E8 04002DE9        	   332: 	STMFD sp!,{r2}
00:080003EC 02002DE9        	   333: 		STMFD sp!,{r1}
00:080003F0 06A4A0E3        	   334: 			mov r10,#0x06000000 ; VRAM
00:080003F4 1E1EA0E3        	   335: 			mov r1,#240*2		;Ypos 
00:080003F8 910202E0        	   336: 			mul r2,r1,r2
00:080003FC 0200BDE8        	   337: 		LDMFD sp!,{r1}	
00:08000400 01A08AE0        	   338: 		add r10,r10,r1
00:08000404 02A08AE0        	   339: 	add r10,r10,r2
00:08000408 0400BDE8        	   340: 	LDMFD sp!,{r2}
00:0800040C 0EF0A0E1        	   341: 	MOV pc,lr
                            	   342: 	
                            	   343: GetNextLine:
00:08000410 1EAE8AE2        	   344: 	add r10,r10,#240*2			;240 - 2 bytes per pixel
00:08000414 0EF0A0E1        	   345: 	MOV pc,lr
                            	   346: 	
                            	   347: ScreenInit:
                            	   348: ;Turn on the screen - ScreenMode 3 - 240x160 16 bit color
00:08000418 FF5F2DE9        	   349: 	STMFD sp!,{r0-r12, lr}
00:0800041C 0143A0E3        	   350: 		mov r4,#0x04000000  	;DISPCNT -LCD Control
00:08000420 012BA0E3032082E3	   351: 		mov r2,#0x403    		;4= Layer 2 on / 3= ScreenMode 3
00:08000428 002084E5        	   352: 		str	r2,[r4]         	
                            	   353: 	
00:0800042C 110000EB        	   354: 		bl cls
                            	   355: 		
00:08000430 FF9FBDE8        	   356: 	LDMFD sp!,{r0-r12, pc}
                            	   357: 
                            	   358: SetPalette:					;Not needed for 16bpp
00:08000434 FF5F2DE9        	   359: 	STMFD sp!,{r0-r12, lr}
00:08000438 05B4A0E3        	   360: 		mov r11,#0x05000000  ; palette register address
00:0800043C 80B08BE0        	   361: 		add r11,r11,r0,asl #1
                            	   362: 
00:08000440 8125A0E1        	   363: 		mov r2,r1,asl #11				;B
                            	   364: 				 ;----GGGGRRRRBBBB
00:08000444 1E3BA0E3        	   365: 		mov r3,#0b0111100000000000
00:08000448 032002E0        	   366: 		and r2,r2,r3
00:0800044C 0250A0E1        	   367: 		mov r5,r2
                            	   368: 		
00:08000450 A121A0E1        	   369: 		mov r2,r1,lsr #3			;R
                            	   370: 				 ;----GGGGRRRRBBBB
00:08000454 1E30A0E3        	   371: 		mov r3,#0b0000000000011110
00:08000458 032002E0        	   372: 		and r2,r2,r3
00:0800045C 025085E1        	   373: 		orr r5,r5,r2
                            	   374: 		
00:08000460 2121A0E1        	   375: 		mov r2,r1,lsr #2			;G
                            	   376: 				 ;----GGGGRRRRBBBB
00:08000464 0F3DA0E3        	   377: 		mov r3,#0b0000001111000000
                            	   378: 				  
00:08000468 032002E0        	   379: 		and r2,r2,r3
00:0800046C 025085E1        	   380: 		orr r5,r5,r2
                            	   381: 		
00:08000470 B0504BE1        	   382: 		strH r5,[r11]	;-BBBBBGGGGGRRRRR
00:08000474 FF9FBDE8        	   383: 	LDMFD sp!,{r0-r12, pc}
                            	   384: 
                            	   385: cls:
00:08000478 0234A0E3203083E3	   386: 	mov r3,#CursorX
00:08000480 0000A0E3        	   387: 	mov r0,#0
00:08000484 0000C3E5        	   388: 	strB r0,[r3]	;X
00:08000488 0234A0E3213083E3	   389: 	mov r3,#CursorY
00:08000490 0000C3E5        	   390: 	strB r0,[r3]	;Y
                            	   391: 	
                            	   392: 		;Fill the screen	
00:08000494 0604A0E3        	   393: 		mov r0, #0x06000000		;Screen Ram
                            	   394: 				;  ABBBBBGGGGGRRRRR	A=Alpha
00:08000498 0219A0E38A1081E3	   395: 		mov r1, #0b1000000010001010
00:080004A0 8A1881E2021181E2	   396: 		add r1,r1,#0x808A0000
00:080004A8 062AA0E3        	   397: 		mov r2, #256*192/2
                            	   398: 
                            	   399: FillScreenLoop:
00:080004AC 041080E4        	   400: 		str r1, [r0],#4		;Store+inc 2 bytes
00:080004B0 012052E2        	   401: 		subs r2, r2, #1		
00:080004B4 FCFFFF1A        	   402: 		bne FillScreenLoop	
00:080004B8 0EF0A0E1        	   403: 	MOV pc,lr
                            	   404: 
                            	   405: ;;;;;;;;;;;;;;;;;;;;;;;;;;;;;;;;;;;;;;;;;;;;;;;;;;;;;;;;;;;;;;;;;;;;;;;;
                            	   406: ; Binary Includes
                            	   407: ;;;;;;;;;;;;;;;;;;;;;;;;;;;;;;;;;;;;;;;;;;;;;;;;;;;;;;;;;;;;;;;;;;;;;;;;
                            	   408: 
                            	   409: BitmapFont:
00:080004BC 0000000000000000	   410: 	.incbin "Font96.FNT"
00:080004C4 1018181818001800
00:080004CC 286C280000000000
00:080004D4 00287C287C280000
00:080004DC 183E483C127C1800
00:080004E4 02C4C81020468600
00:080004EC 10282872948C7200
00:080004F4 0C1C300000000000
00:080004FC 1818303030181800
00:08000504 18180C0C0C181800
00:0800050C 08492A1C14224100
00:08000514 0018187E18180000
00:0800051C 0000000000181830
00:08000524 0000007E7E000000
00:0800052C 0000000000181800
00:08000534 0204081020408000
00:0800053C 7CC6D6D6D6C67C00
00:08000544 1018181818180800
00:0800054C 3C7E063C607E3C00
00:08000554 3C7E061C067E3C00
00:0800055C 183C64CC7C0C0800
00:08000564 3C7E607C067E3E00
00:0800056C 3C7E607C66663C00
00:08000574 3C7E060C18181000
00:0800057C 3C66663C66663C00
00:08000584 3C66663E067E3C00
00:0800058C 0000181800181800
00:08000594 0000181800181830
00:0800059C 0C1C3860381C0C00
00:080005A4 00007E00007E0000
00:080005AC 6070380C38706000
00:080005B4 3C76061C00181800
00:080005BC 7CCEA6B6C6F07C00
00:080005C4 183C66667E662400
00:080005CC 3C66667C66663C00
00:080005D4 387CC0C0C07C3800
00:080005DC 3C64666666643800
00:080005E4 3C7E6078607E3C00
00:080005EC 387C607860602000
00:080005F4 3C66C0C0CC663C00
00:080005FC 2466667E66662400
00:08000604 1018181818180800
00:0800060C 080C0C0C4CFC7800
00:08000614 24666C786C662400
00:0800061C 20606060607E3E00
00:08000624 44EEFED6D6D64400
00:0800062C 44E6F6DECEC64400
00:08000634 386CC6C6C66C3800
00:0800063C 386C647C60602000
00:08000644 386CC6C6CA743A00
00:0800064C 3C66667C6C662600
00:08000654 3C7E603C067E3C00
00:0800065C 3C7E181818180800
00:08000664 2466666666663C00
00:0800066C 24666666663C1800
00:08000674 44C6D6D6FEEE4400
00:0800067C C66C38386CC64400
00:08000684 2466663C18180800
00:0800068C 7CFC0C18307E7C00
00:08000694 1C30303030301C00
00:0800069C 8040201008040200
00:080006A4 380C0C0C0C0C3800
00:080006AC 181818187E7E1818
00:080006B4 181818183C3C1818
00:080006BC 1818181818181818
00:080006C4 0000380C7CCC7800
00:080006CC 20607C6666663C00
00:080006D4 00003C6660663C00
00:080006DC 080C7CCCCCCC7800
00:080006E4 00003C667E603C00
00:080006EC 1C36303830301000
00:080006F4 00003C66663E063C
00:080006FC 20606C7666662400
00:08000704 1800181818180800
00:0800070C 060004060626663C
00:08000714 2060666C786C2600
00:0800071C 1018181818180800
00:08000724 00006CFED6D6C600
00:0800072C 00003C6666662400
00:08000734 00003C6666663C00
00:0800073C 00003C66667C6020
00:08000744 000078CCCC7C0C08
00:0800074C 0000387C60602000
00:08000754 00003C603C067C00
00:0800075C 10303C30303E1C00
00:08000764 0000246666663C00
00:0800076C 00002466663C1800
00:08000774 000044D6D6FE6C00
00:0800077C 0000C66C386CC600
00:08000784 00002466663E067C
00:0800078C 00007E0C18307E00
00:08000794 0808080856555774
00:0800079C 1804081C56555774
00:080007A4 000000007E7EFFFF
00:080007AC 183C181818187EFF
00:080007B4 22777F7F3E1C0800
                            	   411: 
                            	   412: SpriteTest:
                            	   413: 


Symbols by name:
Again                            A:080000EC
BitmapFont                       A:080004BC
cls                              A:08000478
CursorX                          S:02000020
CursorY                          S:02000021
Delay                            A:08000104
Delay2                           A:08000118
DrawLine                         A:08000398
DrawPixel                        A:080003AC
FillScreenLoop                   A:080004AC
GbaStart                         A:080000E8
GetNextLine                      A:08000410
GetScreenPos                     A:080003E8
MemDump                          A:0800014C
MemDumpAgain                     A:0800016C
MemDumpAgainB                    A:0800018C
MemDumpNextLine                  A:08000168
Monitor                          A:080001D4
MonitorR0                        A:08000138
MonitorWidth                     S:00000006
NewLine                          A:0800031C
NextReg                          A:080001E4
PrintChar                        A:08000348
PrintCharSafe                    A:080001B8
RamArea                          S:02000000
ScreenInit                       A:08000418
SetPalette                       A:08000434
ShowHex                          A:080002E8
ShowHex32                        A:080002A0
ShowHexChar                      A:08000300
ShowReg                          A:08000260
ShowRegB                         A:0800028C
ShowRegLR                        A:08000224
ShowRegPC                        A:0800024C
ShowRegSP                        A:08000238
SpriteTest                       A:080007BC

Symbols by value:
00000006 MonitorWidth
02000000 RamArea
02000020 CursorX
02000021 CursorY
080000E8 GbaStart
080000EC Again
08000104 Delay
08000118 Delay2
08000138 MonitorR0
0800014C MemDump
08000168 MemDumpNextLine
0800016C MemDumpAgain
0800018C MemDumpAgainB
080001B8 PrintCharSafe
080001D4 Monitor
080001E4 NextReg
08000224 ShowRegLR
08000238 ShowRegSP
0800024C ShowRegPC
08000260 ShowReg
0800028C ShowRegB
080002A0 ShowHex32
080002E8 ShowHex
08000300 ShowHexChar
0800031C NewLine
08000348 PrintChar
08000398 DrawLine
080003AC DrawPixel
080003E8 GetScreenPos
08000410 GetNextLine
08000418 ScreenInit
08000434 SetPalette
08000478 cls
080004AC FillScreenLoop
080004BC BitmapFont
080007BC SpriteTest
