Sections:
00: "org0001:8000000" (8000000-80019A0)


Source: "C:/Users/Artem/Documents/universitet/4.semester/P4_project/Assambly_Tutorials_VASM/Bitmap_Graphics_16_bit/Bitmap_Graphics_16_bit.asm"
                            	     1: ; ==============================================================================
                            	     2: ; GBA 16-bit Bitmap Graphics Tutorial
                            	     3: ; Target: Nintendo Game Boy Advance (GBA)
                            	     4: ; CPU: ARM7TDMI
                            	     5: ; Assembler: VASM (Standard Syntax)
                            	     6: ; ==============================================================================
                            	     7: 
                            	     8: ; ==============================================================================
                            	     9: ;                                 Header
                            	    10: ; ==============================================================================
                            	    11: 	.org  0x08000000     ; GBA ROM Address starts at 0x08000000       
                            	    12: 	.equ ProgBase,0;0x08000000
                            	    13: 
                            	    14: 	.equ ramarea, 0x02000000  ; WRAM (On-board 256K Work RAM)
                            	    15: 	.equ userram, 0x02000000
                            	    16: 	
                            	    17: 	.equ CursorX,ramarea+32   ; RAM addresses for text monitor
                            	    18: 	.equ CursorY,ramarea+33
                            	    19: 	.equ MonitorWidth,6
                            	    20:  
                            	    21: ;000h    4     ROM Entry Point  (32bit ARM branch opcode, eg. "B rom_start") 
00:08000000 380000EA        	    22: 	b	GbaStart
                            	    23: 
                            	    24: ;004h    156   Nintendo Logo    (compressed bitmap, required!)
00:08000004 C8              	    25: 	.byte 0xC8,0x60,0x4F,0xE2,0x01,0x70,0x8F,0xE2,0x17,0xFF,0x2F,0xE1,0x12,0x4F,0x11,0x48     ; C
00:08000005 60
00:08000006 4F
00:08000007 E2
00:08000008 01
00:08000009 70
00:0800000A 8F
00:0800000B E2
00:0800000C 17
00:0800000D FF
00:0800000E 2F
00:0800000F E1
00:08000010 12
00:08000011 4F
00:08000012 11
00:08000013 48
00:08000014 12              	    26: 	.byte 0x12,0x4C,0x20,0x60,0x64,0x60,0x7C,0x62,0x30,0x1C,0x39,0x1C,0x10,0x4A,0x00,0xF0     ; D
00:08000015 4C
00:08000016 20
00:08000017 60
00:08000018 64
00:08000019 60
00:0800001A 7C
00:0800001B 62
00:0800001C 30
00:0800001D 1C
00:0800001E 39
00:0800001F 1C
00:08000020 10
00:08000021 4A
00:08000022 00
00:08000023 F0
00:08000024 14              	    27: 	.byte 0x14,0xF8,0x30,0x6A,0x80,0x19,0xB1,0x6A,0xF2,0x6A,0x00,0xF0,0x0B,0xF8,0x30,0x6B     ; E
00:08000025 F8
00:08000026 30
00:08000027 6A
00:08000028 80
00:08000029 19
00:0800002A B1
00:0800002B 6A
00:0800002C F2
00:0800002D 6A
00:0800002E 00
00:0800002F F0
00:08000030 0B
00:08000031 F8
00:08000032 30
00:08000033 6B
00:08000034 80              	    28: 	.byte 0x80,0x19,0xB1,0x6B,0xF2,0x6B,0x00,0xF0,0x08,0xF8,0x70,0x6A,0x77,0x6B,0x07,0x4C     ; F
00:08000035 19
00:08000036 B1
00:08000037 6B
00:08000038 F2
00:08000039 6B
00:0800003A 00
00:0800003B F0
00:0800003C 08
00:0800003D F8
00:0800003E 70
00:0800003F 6A
00:08000040 77
00:08000041 6B
00:08000042 07
00:08000043 4C
00:08000044 60              	    29: 	.byte 0x60,0x60,0x38,0x47,0x07,0x4B,0xD2,0x18,0x9A,0x43,0x07,0x4B,0x92,0x08,0xD2,0x18     ; 10
00:08000045 60
00:08000046 38
00:08000047 47
00:08000048 07
00:08000049 4B
00:0800004A D2
00:0800004B 18
00:0800004C 9A
00:0800004D 43
00:0800004E 07
00:0800004F 4B
00:08000050 92
00:08000051 08
00:08000052 D2
00:08000053 18
00:08000054 0C              	    30: 	.byte 0x0C,0xDF,0xF7,0x46,0x04,0xF0,0x1F,0xE5,0x00,0xFE,0x7F,0x02,0xF0,0xFF,0x7F,0x02     ; 11
00:08000055 DF
00:08000056 F7
00:08000057 46
00:08000058 04
00:08000059 F0
00:0800005A 1F
00:0800005B E5
00:0800005C 00
00:0800005D FE
00:0800005E 7F
00:0800005F 02
00:08000060 F0
00:08000061 FF
00:08000062 7F
00:08000063 02
00:08000064 F0              	    31: 	.byte 0xF0,0x01,0x00,0x00,0xFF,0x01,0x00,0x00,0x00,0x00,0x00,0x04,0x00,0x00,0x00,0x00     ; 12
00:08000065 01
00:08000066 00
00:08000067 00
00:08000068 FF
00:08000069 01
00:0800006A 00
00:0800006B 00
00:0800006C 00
00:0800006D 00
00:0800006E 00
00:0800006F 04
00:08000070 00
00:08000071 00
00:08000072 00
00:08000073 00
00:08000074 00              	    32: 	.byte 0x00,0x00,0x00,0x00,0x00,0x00,0x00,0x00,0x00,0x00,0x00,0x00,0x00,0x00,0x00,0x00     ; 13
00:08000075 00
00:08000076 00
00:08000077 00
00:08000078 00
00:08000079 00
00:0800007A 00
00:0800007B 00
00:0800007C 00
00:0800007D 00
00:0800007E 00
00:0800007F 00
00:08000080 00
00:08000081 00
00:08000082 00
00:08000083 00
00:08000084 00              	    33: 	.byte 0x00,0x00,0x00,0x00,0x00,0x00,0x00,0x00,0x00,0x00,0x00,0x00,0x00,0x00,0x00,0x00     ; 14
00:08000085 00
00:08000086 00
00:08000087 00
00:08000088 00
00:08000089 00
00:0800008A 00
00:0800008B 00
00:0800008C 00
00:0800008D 00
00:0800008E 00
00:0800008F 00
00:08000090 00
00:08000091 00
00:08000092 00
00:08000093 00
00:08000094 00              	    34: 	.byte 0x00,0x00,0x00,0x00,0x00,0x00,0x00,0x00,0x00,0x00,0x00,0x00,0x1A,0x9E,0x7B,0xEB     ; 15
00:08000095 00
00:08000096 00
00:08000097 00
00:08000098 00
00:08000099 00
00:0800009A 00
00:0800009B 00
00:0800009C 00
00:0800009D 00
00:0800009E 00
00:0800009F 00
00:080000A0 1A
00:080000A1 9E
00:080000A2 7B
00:080000A3 EB
                            	    35: 	
                            	    36: 
                            	    37: ;0A0h    12    Game Title       (uppercase ascii, max 12 characters)	
                            	    38: 	;		123456789012
00:080000A4 4C4541524E41534D	    39: 	.ascii "LEARNASM.NET"
00:080000AC 2E4E4554
                            	    40: ;0ACh    4     Game Code        (uppercase ascii, 4 characters)
00:080000B0 30303030        	    41: 	.ascii "0000"			;Code
                            	    42: ;0B0h    2     Maker Code       (uppercase ascii, 2 characters)
00:080000B4 4742            	    43: 	.byte "GB"				;Maker
                            	    44: ;0B2h    1     Fixed value      (must be 96h, required!)
00:080000B6 96              	    45: 	.byte 0x96
                            	    46: ;0B3h    1     Main unit code   (00h for current GBA models)
00:080000B7 00              	    47: 	.byte 0x00
                            	    48: ;0B4h    1     Device type      (usually 00h) (bit7=DACS/debug related)
00:080000B8 00              	    49: 	.byte 0x00
                            	    50: ;0B5h    7     Reserved Area    (should be zero filled)
00:080000B9 00              	    51: 	.byte 0x00,0x00,0x00,0x00,0x00,0x00,0x00
00:080000BA 00
00:080000BB 00
00:080000BC 00
00:080000BD 00
00:080000BE 00
00:080000BF 00
                            	    52: ;0BCh    1     Software version (usually 00h)
00:080000C0 00              	    53: 	.byte 0x00
                            	    54: ;0BDh    1     Complement check (header checksum, required!)
00:080000C1 00              	    55: 	.byte 0x00
                            	    56: ;0BEh    2     Reserved Area    (should be zero filled)
00:080000C2 00              	    57: 	.byte 0x00,0x00
00:080000C3 00
                            	    58: ;0C0h    4     RAM Entry Point  (32bit ARM branch opcode, eg. "B ram_start")
00:080000C4 00              	    59: 	.byte 0x00,0x00,0x00,0x00
00:080000C5 00
00:080000C6 00
00:080000C7 00
                            	    60: ;0C4h    1     Boot mode        (init as 00h - BIOS overwrites this value!)
00:080000C8 00              	    61: 	.byte 0x00
                            	    62: ;0C5h    1     Slave ID Number  (init as 00h - BIOS overwrites this value!)
00:080000C9 00              	    63: 	.byte 0x00
                            	    64: ;0C6h    26    Not used         (seems to be unused)
00:080000CA 00              	    65: 	.byte 0,0,0,0,0,0,0,0,0,0,0,0,0,0,0,0,0,0,0,0,0,0,0,0,0,0
00:080000CB 00
00:080000CC 00
00:080000CD 00
00:080000CE 00
00:080000CF 00
00:080000D0 00
00:080000D1 00
00:080000D2 00
00:080000D3 00
00:080000D4 00
00:080000D5 00
00:080000D6 00
00:080000D7 00
00:080000D8 00
00:080000D9 00
00:080000DA 00
00:080000DB 00
00:080000DC 00
00:080000DD 00
00:080000DE 00
00:080000DF 00
00:080000E0 00
00:080000E1 00
00:080000E2 00
00:080000E3 00
                            	    66: ;0E0h    4     JOYBUS Entry Pt. (32bit ARM branch opcode, eg. "B joy_start")
00:080000E4 00              	    67: 	.byte 0x00,0x00,0x00,0x00
00:080000E5 00
00:080000E6 00
00:080000E7 00
                            	    68: 
                            	    69: 
                            	    70: ; ==============================================================================
                            	    71: ;                              Main Entry Point
                            	    72: ; ==============================================================================
                            	    73: GbaStart:
                            	    74: 	; Initialize the Screen Mode
00:080000E8 A00500EB        	    75: 	bl ScreenInit
                            	    76: 	
                            	    77: 	; Draw the register monitor (for debugging/tutorial purpose)
00:080000EC D90500EB        	    78: 	bl Monitor
                            	    79: 	
                            	    80: 	; ----------------------------------------------------
                            	    81: 	; Draw Sprite Data to Screen
                            	    82: 	; ----------------------------------------------------
00:080000F0 1410A0E3        	    83: 	mov r1,#20				; X position
00:080000F4 6420A0E3        	    84: 	mov r2,#100				; Y position
00:080000F8 900500EB        	    85: 	bl GetScreenPos			; Calculate screen VRAM address for X/Y
                            	    86: 							; Returned in r10
                            	    87: 	
00:080000FC 6C109FE5        	    88: 	ldr r1,SpriteAddress	; Load the pointer to SpriteData
00:08000100 3060A0E3        	    89: 	mov r6,#48				; Sprite Height in pixels
                            	    90: Sprite_NextLine:	
00:08000104 3050A0E3        	    91: 	mov r5,#48				; Width in pixels 
                            	    92: 	
00:08000108 00042DE9        	    93: 	STMFD sp!,{r10}			; Backup current line's starting screen address
                            	    94: Sprite_NextByte:
00:0800010C B200D1E0        	    95: 		ldrH r0,[r1],#2		; Read 16-bit pixel from ROM (Sprite Data)
00:08000110 B200CAE0        	    96: 		strH r0,[r10],#2	; Write 16-bit pixel to VRAM
                            	    97: 		
00:08000114 015055E2        	    98: 		subs r5,r5,#1		; Decrement width counter
00:08000118 FBFFFF1A        	    99: 		bne Sprite_NextByte	; Repeat if not zero
                            	   100: 		
00:0800011C 0004BDE8        	   101: 	LDMFD sp!,{r10}			; Restore line's starting screen address
00:08000120 900500EB        	   102: 	bl GetNextLine			; Move VRAM pointer down to the next row (Y+1)
                            	   103: 	
00:08000124 016056E2        	   104: 	subs r6,r6,#1			; Decrement height counter
00:08000128 F5FFFF1A        	   105: 	bne Sprite_NextLine		; Repeat if not zero
                            	   106: 	; ----------------------------------------------------
                            	   107: 
                            	   108: 	; Print Hello World String
00:0800012C 2C109FE5        	   109: 	ldr r1,HelloWorldAddress
00:08000130 030000EB        	   110: 	bl PrintString
                            	   111: 
                            	   112: 	; Dump Memory (Show some memory at the "infloop" label)
00:08000134 04008FE2        	   113: 	adr	r0,infloop			; Address to dump
00:08000138 0210A0E3        	   114: 	mov r1,#2				; Number of Lines
00:0800013C A30500EB        	   115: 	bl MemDump
                            	   116: 	
                            	   117: infloop:
00:08000140 FEFFFFEA        	   118: 	b infloop				; Infinite Loop (End of program)
                            	   119: 
                            	   120: ; ==============================================================================
                            	   121: ;                                  Strings
                            	   122: ; ==============================================================================
                            	   123: PrintString:
00:08000144 FF5F2DE9        	   124: 	STMFD sp!,{r0-r12, lr}
                            	   125: PrintStringAgain:
00:08000148 0100D1E4        	   126: 		ldrB r0,[r1],#1		; Load one character
00:0800014C FF0050E3        	   127: 		cmps r0,#255		; Check if termination character (255)
00:08000150 0100000A        	   128: 		beq PrintStringDone
00:08000154 510500EB        	   129: 		bl PrintChar 		; Print it to VRAM
00:08000158 FAFFFFEA        	   130: 		b PrintStringAgain
                            	   131: PrintStringDone:
00:0800015C FF9FBDE8        	   132: 	LDMFD sp!,{r0-r12, pc}
                            	   133: 
                            	   134: ; ==============================================================================
                            	   135: ;                           Data Definitions
                            	   136: ; ==============================================================================
                            	   137: 	.align 4
                            	   138: HelloWorldAddress:
00:08000160 64010008        	   139: 	.long HelloWorld
                            	   140: 	
                            	   141: HelloWorld:
00:08000164 48656C6C6F20576F	   142: 	.byte "Hello World",255
00:0800016C 726C64
00:0800016F FF
                            	   143: 
                            	   144: 	.align 4
                            	   145: SpriteAddress:
00:08000170 74010008        	   146: 	.long SpriteTest
                            	   147: 
                            	   148: SpriteTest:
00:08000174 8A808A808A808A80	   149: 	.incbin "Sprite_16bpp.RAW" ; ARGB 16bpp raw sprite data (converted NDS sprite)
00:0800017C 8A808A808A808A80
00:08000184 8A804AA940FB8A80
00:0800018C 8A808A808A808A80
00:08000194 8A808A808A8094D2
00:0800019C 40FB86D98A808A80
00:080001A4 8A804AA940FB40FB
00:080001AC 94D28A808A808A80
00:080001B4 8A808A808A808A80
00:080001BC 8A808A808A808A80
00:080001C4 8A808A808A808A80
00:080001CC 8A808A808A808A80
00:080001D4 8A808A808A808A80
00:080001DC 8A808A808A808A80
00:080001E4 8A808A8094D240FB
00:080001EC 8A808A808A808A80
00:080001F4 8A808A808A808A80
00:080001FC 8A8094D294D28A80
00:08000204 8A8086D98A808A80
00:0800020C 8A808A808A808A80
00:08000214 8A808A808A808A80
00:0800021C 8A808A808A808A80
00:08000224 8A808A808A808A80
00:0800022C 8A808A808A808A80
00:08000234 8A808A808A808A80
00:0800023C 8A808A808A808A80
00:08000244 8A808A804AA994D2
00:0800024C 94D28A808A808A80
00:08000254 8A808A808A808A80
00:0800025C 8A808A808A8086D9
00:08000264 4AA98A808A808A80
00:0800026C 8A808A808A808A80
00:08000274 40FB8A808A808A80
00:0800027C 8A808A808A808A80
00:08000284 8A808A808A808A80
00:0800028C 8A808A808A808A80
00:08000294 8A808A808A808A80
00:0800029C 8A808A808A808A80
00:080002A4 8A808A808A8094D2
00:080002AC 94D286D98A808A80
00:080002B4 8A808A804AA94AA9
00:080002BC 4AA94AA94AA94AA9
00:080002C4 86D94AA94AA94AA9
00:080002CC 8A808A808A808A80
00:080002D4 94D24AA986D98A80
00:080002DC 8A808A808A808A80
00:080002E4 8A808A808A808A80
00:080002EC 8A808A808A808A80
00:080002F4 8A808A808A808A80
00:080002FC 8A808A808A808A80
00:08000304 8A808A808A804AA9
00:0800030C 40FB8A808A808A80
00:08000314 4AA94AA986D94AA9
00:0800031C 4AA94AA94AA994D2
00:08000324 4AA94AA94AA94AA9
00:0800032C 4AA94AA98A808A80
00:08000334 8A8094D240FB8A80
00:0800033C 8A808A808A808A80
00:08000344 8A808A808A808A80
00:0800034C 8A808A808A808A80
00:08000354 8A808A808A808A80
00:0800035C 8A808A808A808A80
00:08000364 8A808A808A804AA9
00:0800036C 40FB8A808A804AA9
00:08000374 86D94AA994D24AA9
00:0800037C 94D286D986D994D2
00:08000384 94D24AA986D986D9
00:0800038C 94D24AA94AA98A80
00:08000394 8A808A8094D24AA9
00:0800039C 8A808A808A808A80
00:080003A4 8A808A808A808A80
00:080003AC 8A808A808A808A80
00:080003B4 8A808A808A808A80
00:080003BC 8A808A808A808A80
00:080003C4 8A8086D994D294D2
00:080003CC 94D2469B04B24AA9
00:080003D4 4AA994D286D940FB
00:080003DC 94D294D294D294D2
00:080003E4 94D294D294D240FB
00:080003EC 86D994D24AA98A80
00:080003F4 8A808A8094D294D2
00:080003FC 8A808A808A808A80
00:08000404 8A808A808A808A80
00:0800040C 8A808A808A808A80
00:08000414 8A808A808A808A80
00:0800041C 8A808A808A808A80
00:08000424 86D94AA94AA994D2
00:0800042C 94D2DEFB469B86D9
00:08000434 86D940FB94D294D2
00:0800043C 40FB40FB94D294D2
00:08000444 94D240FB40FB94D2
00:0800044C 40FB86D94AA94AA9
00:08000454 04B294D294D294D2
00:0800045C 94D28A808A808A80
00:08000464 8A808A808A808A80
00:0800046C 8A808A808A808A80
00:08000474 8A808A808A808A80
00:0800047C 8A808A808A804AA9
00:08000484 4AA98A808A80469B
00:0800048C DEFB04B204B24AA9
00:08000494 94D294D294D294D2
00:0800049C 94D294D294D294D2
00:080004A4 94D294D294D294D2
00:080004AC 4AA94AA94AA9469B
00:080004B4 DEFB94D294D240FB
00:080004BC 40FB4AA98A808A80
00:080004C4 8A808A808A808A80
00:080004CC 8A808A808A808A80
00:080004D4 8A808A808A808A80
00:080004DC 8A808A8086D94AA9
00:080004E4 4AA98A808A8004B2
00:080004EC 469B04B2DEFB4AA9
00:080004F4 4AA994D240FB40FB
00:080004FC 94D294D294D240FB
00:08000504 94D294D24AA94AA9
00:0800050C 94D24AA94AA9469B
00:08000514 DEFBDEFB4AA94AA9
00:0800051C 86D94AA98A808A80
00:08000524 8A808A808A808A80
00:0800052C 8A808A808A808A80
00:08000534 8A808A808A808A80
00:0800053C 8A808A804AA94AA9
00:08000544 8A808A808A8094D2
00:0800054C 40FB94D24AA9DEFB
00:08000554 DEFB4AA94AA994D2
00:0800055C 94D294D294D294D2
00:08000564 4AA94AA9DEFBDEFB
00:0800056C 4AA994D294D294D2
00:08000574 469B469B04B28A80
00:0800057C 8A804AA94AA98A80
00:08000584 8A808A808A808A80
00:0800058C 8A808A808A808A80
00:08000594 8A808A808A808A80
00:0800059C 8A808A804AA98A80
00:080005A4 8A808A804AA986D9
00:080005AC 4AA994D200804AA9
00:080005B4 4AA9DEFBDEFB0080
00:080005BC 008094D294D20080
00:080005C4 DEFBDEFB4AA94AA9
00:080005CC 94D294D294D294D2
00:080005D4 4AA94AA94AA98A80
00:080005DC 8A808A804AA98A80
00:080005E4 8A808A808A808A80
00:080005EC 8A808A808A808A80
00:080005F4 8A808A808A808A80
00:080005FC 8A808A808A808A80
00:08000604 8A808A8086D94AA9
00:0800060C 94D2008000800080
00:08000614 008000800080DEFB
00:0800061C 008000800080DEFB
00:08000624 0080008000800080
00:0800062C 00800080008094D2
00:08000634 94D286D94AA94AA9
00:0800063C 8A808A804AA98A80
00:08000644 8A808A808A808A80
00:0800064C 8A808A808A808A80
00:08000654 8A808A808A808A80
00:0800065C 8A808A808A808A80
00:08000664 8A808A804AA994D2
00:0800066C 00804AA94AA90080
00:08000674 4AA900804AA90080
00:0800067C DEFB0080DEFB0080
00:08000684 00804AA900804AA9
00:0800068C 4AA94AA900800080
00:08000694 94D2008086D94AA9
00:0800069C 8A808A804AA986D9
00:080006A4 8A808A808A808A80
00:080006AC 8A808A808A808A80
00:080006B4 8A808A808A808A80
00:080006BC 8A808A808A808A80
00:080006C4 8A808A804AA90080
00:080006CC 4AA9DEFB4AA94AA9
00:080006D4 4AA94AA900800080
00:080006DC 0080008000800080
00:080006E4 4AA94AA94AA94AA9
00:080006EC 4AA9DEFB4AA94AA9
00:080006F4 0080DEFB00804AA9
00:080006FC 8A808A808A804AA9
00:08000704 8A808A808A808A80
00:0800070C 8A808A808A808A80
00:08000714 8A808A808A808A80
00:0800071C 8A808A808A808A80
00:08000724 8A808A8086D90080
00:0800072C 4AA9DEFBDEFBDEFB
00:08000734 4AA94AA94AA94AA9
00:0800073C 0080008000804AA9
00:08000744 4AA94AA9DEFBDEFB
00:0800074C DEFBDEFB4AA90080
00:08000754 0080DEFB008086D9
00:0800075C 8A808A808A808A80
00:08000764 8A808A808A808A80
00:0800076C 8A808A808A808A80
00:08000774 8A808A808A808A80
00:0800077C 8A808A808A808A80
00:08000784 8A808A8086D90080
00:0800078C 0080DEFBDEFB469B
00:08000794 469BDEFB4AA94AA9
00:0800079C 008000804AA94AA9
00:080007A4 DEFB469B469BDEFB
00:080007AC DEFBDEFB00800080
00:080007B4 DEFBDEFB008086D9
00:080007BC 8A808A808A808A80
00:080007C4 8A808A808A808A80
00:080007CC 8A808A808A808A80
00:080007D4 8A808A808A808A80
00:080007DC 8A808A808A808A80
00:080007E4 8A808A804AA90080
00:080007EC 00800080DEFB469B
00:080007F4 0080469BDEFB4AA9
00:080007FC 008000804AA9DEFB
00:08000804 469B0080469BDEFB
00:0800080C DEFB00800080DEFB
00:08000814 DEFBDEFBDEFB8A80
00:0800081C 8A808A808A808A80
00:08000824 8A808A808A808A80
00:0800082C 8A808A808A808A80
00:08000834 8A808A808A808A80
00:0800083C 8A808A808A808A80
00:08000844 8A808A808A804AA9
00:0800084C 008000800080469B
00:08000854 0080469BDEFB0080
00:0800085C 008000800080DEFB
00:08000864 469B0080469BDEFB
00:0800086C 008000800080DEFB
00:08000874 DEFBDEFBDEFB8A80
00:0800087C 8A808A808A808A80
00:08000884 8A808A808A808A80
00:0800088C 8A808A808A808A80
00:08000894 8A808A808A808A80
00:0800089C 8A808A808A808A80
00:080008A4 8A808A804AA986D9
00:080008AC 0080008000800080
00:080008B4 469B469B00800080
00:080008BC 4AA9008000800080
00:080008C4 469B469B00800080
00:080008CC 0080008000800080
00:080008D4 DEFBDEFB008094D2
00:080008DC 4AA98A808A808A80
00:080008E4 8A808A808A808A80
00:080008EC 8A808A808A808A80
00:080008F4 8A808A808A808A80
00:080008FC 8A808A808A808A80
00:08000904 8A804AA94AA986D9
00:0800090C 0080008000800080
00:08000914 0080008000800080
00:0800091C 00804AA900800080
00:08000924 0080008000800080
00:0800092C 0080008000800080
00:08000934 008000804AA986D9
00:0800093C 94D24AA98A808A80
00:08000944 8A808A808A808A80
00:0800094C 8A808A808A808A80
00:08000954 8A808A808A808A80
00:0800095C 8A808A808A808A80
00:08000964 8A808A808A8086D9
00:0800096C 0080008000800080
00:08000974 0080008000800080
00:0800097C 0080008000800080
00:08000984 0080008000800080
00:0800098C 0080008000800080
00:08000994 00804AA94AA940FB
00:0800099C 8A808A808A808A80
00:080009A4 8A808A808A808A80
00:080009AC 8A808A808A808A80
00:080009B4 8A808A808A808A80
00:080009BC 8A808A808A808A80
00:080009C4 8A808A808A804AA9
00:080009CC 4AA9008000800080
00:080009D4 0080008000800080
00:080009DC 0080008000800080
00:080009E4 0080008000800080
00:080009EC 0080008000800080
00:080009F4 00804AA986D994D2
00:080009FC 8A808A808A808A80
00:08000A04 8A808A808A808A80
00:08000A0C 8A808A808A808A80
00:08000A14 8A808A808A808A80
00:08000A1C 8A808A808A808A80
00:08000A24 8A808A808A804AA9
00:08000A2C 4AA9008000800080
00:08000A34 0080008000800080
00:08000A3C 4AA94AA94AA94AA9
00:08000A44 0080008000800080
00:08000A4C 0080008000800080
00:08000A54 4AA94AA940FB94D2
00:08000A5C 8A808A808A808A80
00:08000A64 8A808A808A808A80
00:08000A6C 8A808A808A808A80
00:08000A74 8A808A808A808A80
00:08000A7C 8A808A808A808A80
00:08000A84 8A8086D994D286D9
00:08000A8C 4AA94AA900800080
00:08000A94 0080008000804AA9
00:08000A9C 4AA9469B469B469B
00:08000AA4 469B04B24AA94AA9
00:08000AAC 0080008000800080
00:08000AB4 4AA94AA94AA98A80
00:08000ABC 8A808A808A808A80
00:08000AC4 8A808A808A808A80
00:08000ACC 8A808A808A808A80
00:08000AD4 8A808A808A808A80
00:08000ADC 8A808A808A808A80
00:08000AE4 86D994D240FB94D2
00:08000AEC 4AA94AA94AA90080
00:08000AF4 00804AA94AA94AA9
00:08000AFC 4AA94AA94AA9469B
00:08000B04 04B204B24AA94AA9
00:08000B0C 4AA9008000804AA9
00:08000B14 86D940FB94D28A80
00:08000B1C 8A808A808A808A80
00:08000B24 8A808A808A808A80
00:08000B2C 8A808A808A808A80
00:08000B34 8A808A808A808A80
00:08000B3C 8A808A808A808A80
00:08000B44 8A808A808A808A80
00:08000B4C 8A8086D994D24AA9
00:08000B54 4AA9008000804AA9
00:08000B5C 4AA94AA94AA94AA9
00:08000B64 04B200804AA94AA9
00:08000B6C 008000804AA94AA9
00:08000B74 4AA986D994D28A80
00:08000B7C 8A808A808A808A80
00:08000B84 8A808A808A808A80
00:08000B8C 8A808A808A808A80
00:08000B94 8A808A808A808A80
00:08000B9C 8A808A808A808A80
00:08000BA4 8A808A808A808A80
00:08000BAC 40FB94D24AA94AA9
00:08000BB4 4AA94AA900800080
00:08000BBC 0080008000800080
00:08000BC4 0080008000800080
00:08000BCC 00804AA94AA94AA9
00:08000BD4 4AA994D294D240FB
00:08000BDC 8A808A808A808A80
00:08000BE4 8A808A808A808A80
00:08000BEC 8A808A808A808A80
00:08000BF4 8A808A808A808A80
00:08000BFC 8A808A808A808A80
00:08000C04 8A808A808A804AA9
00:08000C0C 94D294D286D94AA9
00:08000C14 4AA900804AA904B2
00:08000C1C 469B008000800080
00:08000C24 00800080469B04B2
00:08000C2C 4AA900804AA94AA9
00:08000C34 86D994D28A804AA9
00:08000C3C 40FB8A808A808A80
00:08000C44 8A808A808A808A80
00:08000C4C 8A808A808A808A80
00:08000C54 8A808A808A808A80
00:08000C5C 8A808A808A808A80
00:08000C64 8A808A804AA994D2
00:08000C6C 94D294D294D20080
00:08000C74 008004B24AA90080
00:08000C7C 0080469B469BDEFB
00:08000C84 DEFB469B00800080
00:08000C8C 4AA9008086D994D2
00:08000C94 40FB94D28A808A80
00:08000C9C 8A808A808A808A80
00:08000CA4 8A808A808A808A80
00:08000CAC 8A808A808A808A80
00:08000CB4 8A808A808A808A80
00:08000CBC 8A808A808A808A80
00:08000CC4 8A808A808A808A80
00:08000CCC 40FB008000804AA9
00:08000CD4 04B2DEFB00800080
00:08000CDC 0080008000800080
00:08000CE4 0080008000800080
00:08000CEC 469B04B2008094D2
00:08000CF4 94D294D286D98A80
00:08000CFC 8A808A808A808A80
00:08000D04 8A808A808A808A80
00:08000D0C 8A808A808A808A80
00:08000D14 8A808A808A808A80
00:08000D1C 8A808A808A808A80
00:08000D24 8A808A808A8040FB
00:08000D2C 94D200804AA90080
00:08000D34 469BDEFBDEFB0080
00:08000D3C 0080008000804AA9
00:08000D44 008000800080DEFB
00:08000D4C DEFB469B4AA90080
00:08000D54 40FB94D294D286D9
00:08000D5C 8A808A808A808A80
00:08000D64 8A808A808A808A80
00:08000D6C 8A808A808A808A80
00:08000D74 8A808A808A808A80
00:08000D7C 8A808A808A808A80
00:08000D84 8A808A808A8094D2
00:08000D8C 00804AA900800080
00:08000D94 0080469B469B0080
00:08000D9C 008000804AA94AA9
00:08000DA4 008000804AA9469B
00:08000DAC DEFB00804AA90080
00:08000DB4 40FB94D28A808A80
00:08000DBC 8A808A808A808A80
00:08000DC4 8A808A808A808A80
00:08000DCC 8A808A808A808A80
00:08000DD4 8A808A808A808A80
00:08000DDC 8A808A808A808A80
00:08000DE4 8A808A808A808A80
00:08000DEC 4AA9008000800080
00:08000DF4 0080469B00804AA9
00:08000DFC 0080008000804AA9
00:08000E04 4AA900804AA904B2
00:08000E0C 0080008000804AA9
00:08000E14 008040FB8A808A80
00:08000E1C 8A808A808A808A80
00:08000E24 8A808A808A808A80
00:08000E2C 8A808A808A808A80
00:08000E34 8A808A808A808A80
00:08000E3C 8A808A808A808A80
00:08000E44 8A808A808A804AA9
00:08000E4C 0080008000800080
00:08000E54 00804AA900804AA9
00:08000E5C 0080008000800080
00:08000E64 4AA9008000804AA9
00:08000E6C 4AA9008000800080
00:08000E74 4AA98A808A808A80
00:08000E7C 8A808A808A808A80
00:08000E84 8A808A808A808A80
00:08000E8C 8A808A808A808A80
00:08000E94 8A808A808A808A80
00:08000E9C 8A808A808A808A80
00:08000EA4 8A808A804AA90080
00:08000EAC 008000801EF894D0
00:08000EB4 4AA900804AA90080
00:08000EBC 00804AA94AA90080
00:08000EC4 0080008000800080
00:08000ECC 4AA9008000800080
00:08000ED4 00804AA98A808A80
00:08000EDC 8A808A808A808A80
00:08000EE4 8A808A808A808A80
00:08000EEC 8A808A808A808A80
00:08000EF4 8A808A808A808A80
00:08000EFC 8A804AA94AA98A80
00:08000F04 8A804AA900800080
00:08000F0C 00801EF894D01EF8
00:08000F14 008094D2008094D0
00:08000F1C 1EF800804AA94AA9
00:08000F24 0080008000804AA9
00:08000F2C 8A804AA900800080
00:08000F34 008000804AA98A80
00:08000F3C 8A808A808A808A80
00:08000F44 8A808A808A808A80
00:08000F4C 8A808A808A808A80
00:08000F54 8A808A808A808A80
00:08000F5C 4AA9008000804AA9
00:08000F64 04B2469BDEFB0080
00:08000F6C 94D01EF84AA98A80
00:08000F74 94D294D200801EF8
00:08000F7C 0080008000800080
00:08000F84 4AA94AA900804AA9
00:08000F8C 8A808A804AA90080
00:08000F94 0080008000804AA9
00:08000F9C 469B469B469B8A80
00:08000FA4 8A808A808A808A80
00:08000FAC 8A808A808A808A80
00:08000FB4 8A808A808A808A80
00:08000FBC 4AA94AA900800080
00:08000FC4 469BDEFBDEFB469B
00:08000FCC 4AA91EF88A808A80
00:08000FD4 8A808A8094D01EF8
00:08000FDC 94D04AA900800080
00:08000FE4 0080008000804AA9
00:08000FEC 8A808A808A804AA9
00:08000FF4 008000800080DEFB
00:08000FFC DEFB4AA900809CAA
00:08001004 DCB18A808A808A80
00:0800100C 8A808A808A808A80
00:08001014 86D9C0E88A808A80
00:0800101C 8A808A8000800080
00:08001024 00800080469B469B
00:0800102C 00801EF88A808A80
00:08001034 8A808A801EF80080
00:0800103C 1EF8008000800080
00:08001044 4AA94AA94AA90080
00:0800104C 4AA98A808A808A80
00:08001054 4AA90080469BDEFB
00:0800105C 4AA900809CAA9CAA
00:08001064 9CAADEA38A808A80
00:0800106C 8A80469B04B28A80
00:08001074 86D986D9C0E88A80
00:0800107C 4AA94AA94AA90080
00:08001084 00800080469B04B2
00:0800108C 94D01EF88A808A80
00:08001094 8A808A801EF80080
00:0800109C 1EF81EF894D00080
00:080010A4 0080008000800080
00:080010AC 4AA98A808A808A80
00:080010B4 8A804AA9469B4AA9
00:080010BC 00809CAADEA3DEA3
00:080010C4 DEA39CAADCB18A80
00:080010CC 8A808A808A808A80
00:080010D4 86D986D986D9C0E8
00:080010DC 00804AA900800080
00:080010E4 008000804AA98A80
00:080010EC 1EF81EF81EF88A80
00:080010F4 8A8094D01EF80080
00:080010FC 1EF84AA91EF80080
00:08001104 4AA9008000800080
00:0800110C 00804AA98A808A80
00:08001114 8A808A804AA90080
00:0800111C 9CAADEA39CAADEA3
00:08001124 9CAADEA39CAADCB1
00:0800112C 8A808A808A808A80
00:08001134 86D986D9C0E80080
00:0800113C 4AA900804AA90080
00:08001144 4AA900804AA98A80
00:0800114C 8A801EF88A808A80
00:08001154 8A801EF894D01EF8
00:0800115C 1EF84AA91EF80080
00:08001164 00804AA94AA90080
00:0800116C 00804AA98A808A80
00:08001174 8A808A808A809CAA
00:0800117C 9CAA9CAADEA3DEA3
00:08001184 9CAA9CAADCB18A80
00:0800118C 8A808A808A808A80
00:08001194 86D986D986D9C0E8
00:0800119C 8A804AA94AA94AA9
00:080011A4 8A804AA98A808A80
00:080011AC 8A808A808A808A80
00:080011B4 8A804AA9008094D0
00:080011BC 1EF8008000800080
00:080011C4 0080008000804AA9
00:080011CC 00804AA98A808A80
00:080011D4 8A808A809CAA9CAA
00:080011DC DEA3DEA39CAADEA3
00:080011E4 9CAADCB18A808A80
00:080011EC 8A808A808A808A80
00:080011F4 86D986D986D9DEFB
00:080011FC 8A808A808A808A80
00:08001204 8A808A808A808A80
00:0800120C 8A808A808A808A80
00:08001214 04B24AA900800080
00:0800121C 1EF8008000800080
00:08001224 4AA9008000800080
00:0800122C 0080008004B28A80
00:08001234 8A808A80DCB19CAA
00:0800123C 9CAADEA3DEA39CAA
00:08001244 DCB18A808A808A80
00:0800124C 8A808A808A808A80
00:08001254 DCB186D986D9DEFB
00:0800125C C0E8C0E8C0E8C0E8
00:08001264 C0E88A80C0E88A80
00:0800126C 8A808A808A808A80
00:08001274 94D0469B1EF81EF8
00:0800127C 94D04AA900800080
00:08001284 00804AA900800080
00:0800128C 008004B24AA904B2
00:08001294 8A808A808A80DCB1
00:0800129C DEA39CAA9CAADCB1
00:080012A4 8A808A808A80469B
00:080012AC 04B28A80469B04B2
00:080012B4 86D986D9DEFB86D9
00:080012BC 86D986D986D9C0E8
00:080012C4 8A808A8086D98A80
00:080012CC 8A808A808A808A80
00:080012D4 1EF84AA994D01EF8
00:080012DC 1EF8DEFB469B469B
00:080012E4 469B469B469B469B
00:080012EC 04B28A804AA904B2
00:080012F4 8A808A808A808A80
00:080012FC DCB19CAADCB18A80
00:08001304 8A808A808A808A80
00:0800130C 8A808A808A808A80
00:08001314 86D986D986D986D9
00:0800131C 86D986D986D986D9
00:08001324 8A8086D98A808A80
00:0800132C 8A808A808A8094D0
00:08001334 1EF8469B1EF84AA9
00:0800133C 94D08A808A808A80
00:08001344 8A808A808A808A80
00:0800134C 8A808A8004B28A80
00:08001354 8A808A808A808A80
00:0800135C 8A80DCB18A808A80
00:08001364 8A808A808A808A80
00:0800136C 8A808A808A808A80
                            	   150: 
                            	   151: BitmapFont:
00:08001374 0000000000000000	   152: 	.incbin "Font96.FNT"
00:0800137C 1018181818001800
00:08001384 286C280000000000
00:0800138C 00287C287C280000
00:08001394 183E483C127C1800
00:0800139C 02C4C81020468600
00:080013A4 10282872948C7200
00:080013AC 0C1C300000000000
00:080013B4 1818303030181800
00:080013BC 18180C0C0C181800
00:080013C4 08492A1C14224100
00:080013CC 0018187E18180000
00:080013D4 0000000000181830
00:080013DC 0000007E7E000000
00:080013E4 0000000000181800
00:080013EC 0204081020408000
00:080013F4 7CC6D6D6D6C67C00
00:080013FC 1018181818180800
00:08001404 3C7E063C607E3C00
00:0800140C 3C7E061C067E3C00
00:08001414 183C64CC7C0C0800
00:0800141C 3C7E607C067E3E00
00:08001424 3C7E607C66663C00
00:0800142C 3C7E060C18181000
00:08001434 3C66663C66663C00
00:0800143C 3C66663E067E3C00
00:08001444 0000181800181800
00:0800144C 0000181800181830
00:08001454 0C1C3860381C0C00
00:0800145C 00007E00007E0000
00:08001464 6070380C38706000
00:0800146C 3C76061C00181800
00:08001474 7CCEA6B6C6F07C00
00:0800147C 183C66667E662400
00:08001484 3C66667C66663C00
00:0800148C 387CC0C0C07C3800
00:08001494 3C64666666643800
00:0800149C 3C7E6078607E3C00
00:080014A4 387C607860602000
00:080014AC 3C66C0C0CC663C00
00:080014B4 2466667E66662400
00:080014BC 1018181818180800
00:080014C4 080C0C0C4CFC7800
00:080014CC 24666C786C662400
00:080014D4 20606060607E3E00
00:080014DC 44EEFED6D6D64400
00:080014E4 44E6F6DECEC64400
00:080014EC 386CC6C6C66C3800
00:080014F4 386C647C60602000
00:080014FC 386CC6C6CA743A00
00:08001504 3C66667C6C662600
00:0800150C 3C7E603C067E3C00
00:08001514 3C7E181818180800
00:0800151C 2466666666663C00
00:08001524 24666666663C1800
00:0800152C 44C6D6D6FEEE4400
00:08001534 C66C38386CC64400
00:0800153C 2466663C18180800
00:08001544 7CFC0C18307E7C00
00:0800154C 1C30303030301C00
00:08001554 8040201008040200
00:0800155C 380C0C0C0C0C3800
00:08001564 181818187E7E1818
00:0800156C 181818183C3C1818
00:08001574 1818181818181818
00:0800157C 0000380C7CCC7800
00:08001584 20607C6666663C00
00:0800158C 00003C6660663C00
00:08001594 080C7CCCCCCC7800
00:0800159C 00003C667E603C00
00:080015A4 1C36303830301000
00:080015AC 00003C66663E063C
00:080015B4 20606C7666662400
00:080015BC 1800181818180800
00:080015C4 060004060626663C
00:080015CC 2060666C786C2600
00:080015D4 1018181818180800
00:080015DC 00006CFED6D6C600
00:080015E4 00003C6666662400
00:080015EC 00003C6666663C00
00:080015F4 00003C66667C6020
00:080015FC 000078CCCC7C0C08
00:08001604 0000387C60602000
00:0800160C 00003C603C067C00
00:08001614 10303C30303E1C00
00:0800161C 0000246666663C00
00:08001624 00002466663C1800
00:0800162C 000044D6D6FE6C00
00:08001634 0000C66C386CC600
00:0800163C 00002466663E067C
00:08001644 00007E0C18307E00
00:0800164C 0808080856555774
00:08001654 1804081C56555774
00:0800165C 000000007E7EFFFF
00:08001664 183C181818187EFF
00:0800166C 22777F7F3E1C0800
                            	   153: 
                            	   154: ; ==============================================================================
                            	   155: ;                           Graphics Routines
                            	   156: ; ==============================================================================
                            	   157: 
                            	   158: NewLine:
00:08001674 FF5F2DE9        	   159: 	STMFD sp!,{r0-r12, lr}
00:08001678 0234A0E3203083E3	   160: 		mov r3,#CursorX
00:08001680 0000A0E3        	   161: 		mov r0,#0
00:08001684 0000C3E5        	   162: 		strB r0,[r3]		; Reset CursorX to 0
                            	   163: 		
00:08001688 0234A0E3213083E3	   164: 		mov r3,#CursorY
00:08001690 0000D3E5        	   165: 		ldrB r0,[r3]	
00:08001694 010080E2        	   166: 		add r0,r0,#1		; Increment CursorY
00:08001698 0000C3E5        	   167: 		strB r0,[r3]	
00:0800169C FF9FBDE8        	   168: 	LDMFD sp!,{r0-r12, pc}
                            	   169: 	
                            	   170: PrintChar:
00:080016A0 FF5F2DE9        	   171: 	STMFD sp!,{r0-r12, lr}
00:080016A4 0040A0E3        	   172: 		mov r4,#0
00:080016A8 0050A0E3        	   173: 		mov r5,#0
                            	   174: 		
00:080016AC 0234A0E3203083E3	   175: 		mov r3,#CursorX
00:080016B4 0040D3E5        	   176: 		ldrB r4,[r3]		; Get Cursor X
00:080016B8 0234A0E3213083E3	   177: 		mov r3,#CursorY
00:080016C0 0050D3E5        	   178: 		ldrB r5,[r3]		; Get Cursor Y
                            	   179: 		
00:080016C4 0634A0E3        	   180: 		mov r3,#0x06000000 	; VRAM Base Address (Mode 3)
                            	   181: 		
00:080016C8 1060A0E3        	   182: 		mov r6,#16			; Font Character Width (8 pixels * 2 bytes/pixel)
00:080016CC 940602E0        	   183: 		mul r2,r4,r6		; X Offset
00:080016D0 023083E0        	   184: 		add r3,r3,r2
                            	   185: 		
00:080016D4 0F4CA0E3        	   186: 		mov r4,#240*8*2		; Font Character Height (Row length * 8 pixels * 2 bytes/pixel)
00:080016D8 950402E0        	   187: 		mul r2,r5,r4		; Y Offset
00:080016DC 023083E0        	   188: 		add r3,r3,r2
                            	   189: 		
00:080016E0 DD4F4FE2        	   190: 		adr r4,BitmapFont 	; Load Font source address
00:080016E4 200040E2        	   191: 		sub r0,r0,#32		; First Character in font is ASCII 32 (Space)
00:080016E8 804184E0        	   192: 		add r4,r4,r0,asl #3	; 8 bytes per character in font mapping
                            	   193: 		
00:080016EC 0810A0E3        	   194: 		mov r1,#8			; 8 lines per character
                            	   195: DrawLine:
00:080016F0 0870A0E3        	   196: 		mov r7,#8 			; 8 pixels per line
00:080016F4 0180D4E4        	   197: 		ldrb r8,[r4],#1		; Load the bitmap row for the given character
00:080016F8 8090A0E3        	   198: 		mov r9,#0b10000000	; Pixel mask to read left alignment
                            	   199: 		
                            	   200: 		; Font color
                            	   201: 		;         ABBBBBGGGGGRRRRR (A=Alpha)
00:080016FC FF2CA0E3402082E3	   202: 		mov r2, #0b1111111101000000 
                            	   203: 		
                            	   204: DrawPixel:
00:08001704 090018E1        	   205: 		tst r8,r9			; Is bit set?
00:08001708 B0204311        	   206: 		strneh r2,[r3]		; Yes? then fill pixel in VRAM with color
00:0800170C 023083E2        	   207: 		add r3,r3,#2		; Move VRAM ptr 2 bytes (1 pixel) right
00:08001710 E990A0E1        	   208: 		mov r9,r9,ror #1	; Bitshift Mask to next bit
00:08001714 017057E2        	   209: 		subs r7,r7,#1		; Decrease X-Counter
00:08001718 F9FFFF1A        	   210: 		bne DrawPixel		; Next horizontal pixel
                            	   211: 		
00:0800171C 1D3E83E2        	   212: 		add r3,r3,#480-16	; Move down one line (240px * 2 - 16 bytes for drawn text)
00:08001720 011051E2        	   213: 		subs r1,r1,#1		; Decrease Y-Counter
00:08001724 F1FFFF1A        	   214: 		bne DrawLine		; Next vertical line
                            	   215: 		
00:08001728 0234A0E3203083E3	   216: 		mov r3,#CursorX
00:08001730 0000D3E5        	   217: 		ldrB r0,[r3]	
00:08001734 010080E2        	   218: 		add r0,r0,#1		; Move cursor horizontally for next character
00:08001738 0000C3E5        	   219: 		strB r0,[r3]	
00:0800173C FF9FBDE8        	   220: 	LDMFD sp!,{r0-r12, pc}
                            	   221: 
                            	   222: GetScreenPos: 
                            	   223: 	; IN: R1 = X, R2 = Y
                            	   224: 	; OUT: R10 = Screen Address
00:08001740 04002DE9        	   225: 	STMFD sp!,{r2}
00:08001744 02002DE9        	   226: 		STMFD sp!,{r1}
00:08001748 06A4A0E3        	   227: 			mov r10,#0x06000000 ; VRAM Mode 3 Base Address
00:0800174C 1E1EA0E3        	   228: 			mov r1,#240*2		; Ypos multiplier (240 pixels * 2 bytes)
00:08001750 910202E0        	   229: 			mul r2,r1,r2		; Total Y Offset
00:08001754 0200BDE8        	   230: 		LDMFD sp!,{r1}	
00:08001758 81A08AE0        	   231: 		add r10,r10,r1,lsl #1   ; X offset in bytes = X * 2 
00:0800175C 02A08AE0        	   232: 	add r10,r10,r2
00:08001760 0400BDE8        	   233: 	LDMFD sp!,{r2}
00:08001764 0EF0A0E1        	   234: 	MOV pc,lr
                            	   235: 
                            	   236: GetNextLine:
                            	   237: 	; IN: R10 = Current VRAM Address
                            	   238: 	; OUT: R10 = Address directly below
00:08001768 1EAE8AE2        	   239: 	add r10,r10,#240*2			; Move down 1 screen row (240px * 2 Bytes = 480 Bytes)
00:0800176C 0EF0A0E1        	   240: 	MOV pc,lr
                            	   241: 	
                            	   242: ScreenInit:
                            	   243: 	; Turn on the screen - ScreenMode 3 - 240x160 16 bit color
00:08001770 FF5F2DE9        	   244: 	STMFD sp!,{r0-r12, lr}
00:08001774 0143A0E3        	   245: 		mov r4,#0x04000000  	; DISPCNT (LCD Control register)
00:08001778 012BA0E3032082E3	   246: 		mov r2,#0x403    		; Bit 8,9,10 = BG2 enable (0x400) | Mode 3 (0x3)
00:08001780 002084E5        	   247: 		str	r2,[r4]         	
                            	   248: 	
00:08001784 000000EB        	   249: 		bl cls					; Clear the screen buffer
                            	   250: 		
00:08001788 FF9FBDE8        	   251: 	LDMFD sp!,{r0-r12, pc}
                            	   252: 	
                            	   253: cls:
                            	   254: 	; Reset Custom Cursor
00:0800178C 0234A0E3203083E3	   255: 	mov r3,#CursorX
00:08001794 0000A0E3        	   256: 	mov r0,#0
00:08001798 0000C3E5        	   257: 	strB r0,[r3]	; X=0
00:0800179C 0234A0E3213083E3	   258: 	mov r3,#CursorY
00:080017A4 0000C3E5        	   259: 	strB r0,[r3]	; Y=0
                            	   260: 	
                            	   261: 	; Fill the screen	
00:080017A8 0604A0E3        	   262: 	mov r0, #0x06000000			; Screen Ram (Mode 3 Base)
                            	   263: 			;      ABBBBBGGGGGRRRRR	A=Alpha
00:080017AC 0219A0E38A1081E3	   264: 	mov r1, #0b1000000010001010
00:080017B4 8A1881E2021181E2	   265: 	add r1,r1,#0x808A0000		; Duplicate 16-bit color to fill as 32-bit blocks
                            	   266: 	
00:080017BC 4B2CA0E3        	   267: 	mov r2, #240*160/2			; Total loops needed for GBA (240*160 pixels / 2 pixels per write)
                            	   268: 
                            	   269: FillScreenLoop:
00:080017C0 041080E4        	   270: 		str r1, [r0],#4			; Store 32-bits (2 pixels) + increment 4 bytes
00:080017C4 012052E2        	   271: 		subs r2, r2, #1		
00:080017C8 FCFFFF1A        	   272: 		bne FillScreenLoop	
00:080017CC 0EF0A0E1        	   273: 	MOV pc,lr
                            	   274: 
                            	   275: ; ==============================================================================
                            	   276: ;                        Monitor & Debug Routines
                            	   277: ; ==============================================================================
                            	   278: MemDump:				
00:080017D0 FF5F2DE9        	   279: 	STMFD sp!,{r0-r12, lr}
00:080017D4 0040A0E1        	   280: 		mov r4,r0
                            	   281: 		
00:080017D8 0400A0E1        	   282: 		mov r0,r4
00:080017DC 500000EB        	   283: 		bl ShowHex32
00:080017E0 3A00A0E3        	   284: 		mov r0,#58 				; ':'
00:080017E4 ADFFFFEB        	   285: 		bl PrintChar
00:080017E8 A1FFFFEB        	   286: 		bl NewLine
                            	   287: 
                            	   288: MemDumpNextLine:
00:080017EC 0030A0E3        	   289: 		mov r3,#0
                            	   290: MemDumpAgain:			
00:080017F0 0300D4E7        	   291: 		ldrb r0,[r4,r3]
00:080017F4 5C0000EB        	   292: 		bl ShowHex
                            	   293: 		
00:080017F8 2000A0E3        	   294: 		mov r0,#32 				; space
00:080017FC A7FFFFEB        	   295: 		bl PrintChar
                            	   296: 		
00:08001800 013083E2        	   297: 		add r3,r3,#1
00:08001804 060053E3        	   298: 		cmp r3,#MonitorWidth
00:08001808 F8FFFF1A        	   299: 		bne MemDumpAgain
                            	   300: 		
00:0800180C 0030A0E3        	   301: 		mov r3,#0
                            	   302: MemDumpAgainB:
00:08001810 0000A0E3        	   303: 		mov r0,#0
00:08001814 0300D4E7        	   304: 		ldrb r0,[r4,r3]
00:08001818 070000EB        	   305: 		bl PrintCharSafe
00:0800181C 013083E2        	   306: 		add r3,r3,#1
00:08001820 060053E3        	   307: 		cmp r3,#MonitorWidth
00:08001824 F9FFFF1A        	   308: 		bne MemDumpAgainB
00:08001828 034084E0        	   309: 		add r4,r4,r3
00:0800182C 90FFFFEB        	   310: 		bl NewLine
                            	   311: 		
00:08001830 011051E2        	   312: 		subs r1,r1,#1
00:08001834 ECFFFF1A        	   313: 		bne MemDumpNextLine
                            	   314: 		
00:08001838 FF9FBDE8        	   315: 	LDMFD sp!,{r0-r12, pc}		
                            	   316: 
                            	   317: PrintCharSafe:
00:0800183C FF5F2DE9        	   318: 	STMFD sp!,{r0-r12, lr}
00:08001840 200050E3        	   319: 		cmp r0,#32
00:08001844 2E00A0B3        	   320: 		movlt r0,#46 			; '.' Filter unprintable
00:08001848 800050E3        	   321: 		cmp r0,#128
00:0800184C 2E00A0C3        	   322: 		movgt r0,#46 			; '.' Filter unprintable
                            	   323: 		
00:08001850 92FFFFEB        	   324: 		bl PrintChar
00:08001854 FF9FBDE8        	   325: 	LDMFD sp!,{r0-r12, pc}		
                            	   326: 		
                            	   327: Monitor:
00:08001858 FFFF2DE9        	   328: 	STMFD sp!,{r0-r15}
00:0800185C 0D50A0E1        	   329: 	mov r5,sp
                            	   330: 	
00:08001860 0030A0E3        	   331: 	mov r3,#0 					; Start Register
00:08001864 0040A0E3        	   332: 	mov r4,#0					; Stack Offsets
                            	   333: NextReg:
00:08001868 1D0000EB        	   334: 	bl ShowReg					; 1st column
                            	   335: 	
00:0800186C 2000A0E3        	   336: 	mov r0,#32
00:08001870 8AFFFFEB        	   337: 	bl PrintChar
                            	   338: 
00:08001874 204084E2        	   339: 	add r4,r4,#8*4				; 2nd column
00:08001878 083083E2        	   340: 	add r3,r3,#8
00:0800187C 180000EB        	   341: 	bl ShowReg
                            	   342: 	
00:08001880 204044E2        	   343: 	sub r4,r4,#8*4
00:08001884 083043E2        	   344: 	sub r3,r3,#8
                            	   345: 	
00:08001888 79FFFFEB        	   346: 	bl NewLine
00:0800188C 044084E2        	   347: 	add r4,r4,#4
00:08001890 013083E2        	   348: 	add r3,r3,#1
00:08001894 080053E3        	   349: 	cmp r3,#8
00:08001898 F2FFFF1A        	   350: 	bne NextReg
                            	   351: 	
00:0800189C FF7FBDE8        	   352: 	LDMFD sp!,{r0-r14}
00:080018A0 04D08DE2        	   353: 	add sp,sp,#4
00:080018A4 0EF0A0E1        	   354: 	mov pc,lr
                            	   355: 		
                            	   356: ShowRegLR:		
00:080018A8 4C00A0E3        	   357: 		mov r0,#76 				; 'L'
00:080018AC 7BFFFFEB        	   358: 		bl PrintChar
00:080018B0 5200A0E3        	   359: 		mov r0,#82 				; 'R'
00:080018B4 79FFFFEB        	   360: 		bl PrintChar
00:080018B8 140000EA        	   361: 	b ShowRegB
                            	   362: 	
                            	   363: ShowRegSP:		
00:080018BC 5300A0E3        	   364: 		mov r0,#83 				; 'S'
00:080018C0 76FFFFEB        	   365: 		bl PrintChar
00:080018C4 5000A0E3        	   366: 		mov r0,#80 				; 'P'
00:080018C8 74FFFFEB        	   367: 		bl PrintChar
00:080018CC 0F0000EA        	   368: 	b ShowRegB
                            	   369: 	
                            	   370: ShowRegPC:		
00:080018D0 5000A0E3        	   371: 		mov r0,#80 				; 'P'
00:080018D4 71FFFFEB        	   372: 		bl PrintChar
00:080018D8 4300A0E3        	   373: 		mov r0,#67 				; 'C'
00:080018DC 6FFFFFEB        	   374: 		bl PrintChar	
00:080018E0 0A0000EA        	   375: 	b ShowRegB
                            	   376: 	
                            	   377: ShowReg:			
00:080018E4 FF5F2DE9        	   378: 	STMFD sp!,{r0-r12, lr}
00:080018E8 0F0053E3        	   379: 		cmp r3,#15
00:080018EC F7FFFF0A        	   380: 		beq ShowRegPC
00:080018F0 0E0053E3        	   381: 		cmp r3,#14
00:080018F4 EBFFFF0A        	   382: 		beq ShowRegLR
00:080018F8 0D0053E3        	   383: 		cmp r3,#13
00:080018FC EEFFFF0A        	   384: 		beq ShowRegSP
                            	   385: 		
00:08001900 5200A0E3        	   386: 		mov r0,#82 				; 'R' (Ascii 82)
00:08001904 65FFFFEB        	   387: 		bl PrintChar
                            	   388: 		
00:08001908 0320A0E1        	   389: 		mov r2,r3 
00:0800190C 1C0000EB        	   390: 		bl ShowHexChar
                            	   391: ShowRegB:		
00:08001910 3A00A0E3        	   392: 		mov r0,#58 				; ':'
00:08001914 61FFFFEB        	   393: 		bl PrintChar
                            	   394: 		
00:08001918 040095E7        	   395: 		ldr r0,[r5,r4]
00:0800191C 000000EB        	   396: 		bl ShowHex32
00:08001920 FF9FBDE8        	   397: 	LDMFD sp!,{r0-r12, pc}	
                            	   398: 	
                            	   399: ShowHex32:
00:08001924 FF5F2DE9        	   400: 	STMFD sp!,{r0-r12, lr}
00:08001928 602EA0E1        	   401: 		mov r2,r0,ror #28
00:0800192C 140000EB        	   402: 		bl ShowHexChar	
00:08001930 602CA0E1        	   403: 		mov r2,r0,ror #24
00:08001934 120000EB        	   404: 		bl ShowHexChar	
00:08001938 602AA0E1        	   405: 		mov r2,r0,ror #20
00:0800193C 100000EB        	   406: 		bl ShowHexChar	
00:08001940 6028A0E1        	   407: 		mov r2,r0,ror #16
00:08001944 0E0000EB        	   408: 		bl ShowHexChar	
00:08001948 6026A0E1        	   409: 		mov r2,r0,ror #12
00:0800194C 0C0000EB        	   410: 		bl ShowHexChar	
00:08001950 6024A0E1        	   411: 		mov r2,r0,ror #8
00:08001954 0A0000EB        	   412: 		bl ShowHexChar	
00:08001958 6022A0E1        	   413: 		mov r2,r0,ror #4
00:0800195C 080000EB        	   414: 		bl ShowHexChar	
00:08001960 0020A0E1        	   415: 		mov r2,r0
00:08001964 060000EB        	   416: 		bl ShowHexChar	
00:08001968 FF9FBDE8        	   417: 	LDMFD sp!,{r0-r12, pc}	
                            	   418: 	
                            	   419: ShowHex:
00:0800196C FF5F2DE9        	   420: 	STMFD sp!,{r0-r12, lr}
00:08001970 6022A0E1        	   421: 		mov r2,r0,ror #4
00:08001974 020000EB        	   422: 		bl ShowHexChar	
00:08001978 0020A0E1        	   423: 		mov r2,r0
00:0800197C 000000EB        	   424: 		bl ShowHexChar	
00:08001980 FF9FBDE8        	   425: 	LDMFD sp!,{r0-r12, pc}		
                            	   426: 	
                            	   427: ShowHexChar:
00:08001984 FF5F2DE9        	   428: 	STMFD sp!,{r0-r12, lr}
00:08001988 0F0002E2        	   429: 		and r0,r2,#0x0F
00:0800198C 0A0050E3        	   430: 		cmp r0,#10
00:08001990 070080A2        	   431: 		addge r0,r0,#7
00:08001994 300080E2        	   432: 		add r0,r0,#48
00:08001998 40FFFFEB        	   433: 		bl PrintChar	
00:0800199C FF9FBDE8        	   434: 	LDMFD sp!,{r0-r12, pc}
                            	   435: 


Symbols by name:
BitmapFont                       A:08001374
cls                              A:0800178C
CursorX                          S:02000020
CursorY                          S:02000021
DrawLine                         A:080016F0
DrawPixel                        A:08001704
FillScreenLoop                   A:080017C0
GbaStart                         A:080000E8
GetNextLine                      A:08001768
GetScreenPos                     A:08001740
HelloWorld                       A:08000164
HelloWorldAddress                A:08000160
infloop                          A:08000140
MemDump                          A:080017D0
MemDumpAgain                     A:080017F0
MemDumpAgainB                    A:08001810
MemDumpNextLine                  A:080017EC
Monitor                          A:08001858
MonitorWidth                     S:00000006
NewLine                          A:08001674
NextReg                          A:08001868
PrintChar                        A:080016A0
PrintCharSafe                    A:0800183C
PrintString                      A:08000144
PrintStringAgain                 A:08000148
PrintStringDone                  A:0800015C
ramarea                          S:02000000
ScreenInit                       A:08001770
ShowHex                          A:0800196C
ShowHex32                        A:08001924
ShowHexChar                      A:08001984
ShowReg                          A:080018E4
ShowRegB                         A:08001910
ShowRegLR                        A:080018A8
ShowRegPC                        A:080018D0
ShowRegSP                        A:080018BC
Sprite_NextByte                  A:0800010C
Sprite_NextLine                  A:08000104
SpriteAddress                    A:08000170
SpriteTest                       A:08000174

Symbols by value:
00000006 MonitorWidth
02000000 ramarea
02000020 CursorX
02000021 CursorY
080000E8 GbaStart
08000104 Sprite_NextLine
0800010C Sprite_NextByte
08000140 infloop
08000144 PrintString
08000148 PrintStringAgain
0800015C PrintStringDone
08000160 HelloWorldAddress
08000164 HelloWorld
08000170 SpriteAddress
08000174 SpriteTest
08001374 BitmapFont
08001674 NewLine
080016A0 PrintChar
080016F0 DrawLine
08001704 DrawPixel
08001740 GetScreenPos
08001768 GetNextLine
08001770 ScreenInit
0800178C cls
080017C0 FillScreenLoop
080017D0 MemDump
080017EC MemDumpNextLine
080017F0 MemDumpAgain
08001810 MemDumpAgainB
0800183C PrintCharSafe
08001858 Monitor
08001868 NextReg
080018A8 ShowRegLR
080018BC ShowRegSP
080018D0 ShowRegPC
080018E4 ShowReg
08001910 ShowRegB
08001924 ShowHex32
0800196C ShowHex
08001984 ShowHexChar
